
sonic_code_app:     Dateiformat elf32-avr

Sektionen:
Idx Name          Größe     VMA       LMA       Datei-Off Ausr.
  0 .data         00000010  00800100  00000ec8  00000f5c  2**0
                  CONTENTS, ALLOC, LOAD, DATA
  1 .text         00000ec8  00000000  00000000  00000094  2**1
                  CONTENTS, ALLOC, LOAD, READONLY, CODE
  2 .bss          0000002e  00800110  00800110  00000f6c  2**0
                  ALLOC
  3 .stab         000006cc  00000000  00000000  00000f6c  2**2
                  CONTENTS, READONLY, DEBUGGING
  4 .stabstr      00000054  00000000  00000000  00001638  2**0
                  CONTENTS, READONLY, DEBUGGING
  5 .comment      00000011  00000000  00000000  0000168c  2**0
                  CONTENTS, READONLY

Disassembly of section .text:

00000000 <__vectors>:
   0:	0c 94 5b 00 	jmp	0xb6	; 0xb6 <__ctors_end>
   4:	0c 94 78 00 	jmp	0xf0	; 0xf0 <__bad_interrupt>
   8:	0c 94 78 00 	jmp	0xf0	; 0xf0 <__bad_interrupt>
   c:	0c 94 78 00 	jmp	0xf0	; 0xf0 <__bad_interrupt>
  10:	0c 94 78 00 	jmp	0xf0	; 0xf0 <__bad_interrupt>
  14:	0c 94 78 00 	jmp	0xf0	; 0xf0 <__bad_interrupt>
  18:	0c 94 78 00 	jmp	0xf0	; 0xf0 <__bad_interrupt>
  1c:	0c 94 78 00 	jmp	0xf0	; 0xf0 <__bad_interrupt>
  20:	0c 94 78 00 	jmp	0xf0	; 0xf0 <__bad_interrupt>
  24:	0c 94 78 00 	jmp	0xf0	; 0xf0 <__bad_interrupt>
  28:	0c 94 78 00 	jmp	0xf0	; 0xf0 <__bad_interrupt>
  2c:	0c 94 78 00 	jmp	0xf0	; 0xf0 <__bad_interrupt>
  30:	0c 94 78 00 	jmp	0xf0	; 0xf0 <__bad_interrupt>
  34:	0c 94 78 00 	jmp	0xf0	; 0xf0 <__bad_interrupt>
  38:	0c 94 78 00 	jmp	0xf0	; 0xf0 <__bad_interrupt>
  3c:	0c 94 78 00 	jmp	0xf0	; 0xf0 <__bad_interrupt>
  40:	0c 94 78 00 	jmp	0xf0	; 0xf0 <__bad_interrupt>
  44:	0c 94 78 00 	jmp	0xf0	; 0xf0 <__bad_interrupt>
  48:	0c 94 78 00 	jmp	0xf0	; 0xf0 <__bad_interrupt>
  4c:	0c 94 78 00 	jmp	0xf0	; 0xf0 <__bad_interrupt>
  50:	0c 94 78 00 	jmp	0xf0	; 0xf0 <__bad_interrupt>
  54:	0c 94 78 00 	jmp	0xf0	; 0xf0 <__bad_interrupt>
  58:	0c 94 78 00 	jmp	0xf0	; 0xf0 <__bad_interrupt>
  5c:	0c 94 78 00 	jmp	0xf0	; 0xf0 <__bad_interrupt>
  60:	0c 94 78 00 	jmp	0xf0	; 0xf0 <__bad_interrupt>
  64:	0c 94 78 00 	jmp	0xf0	; 0xf0 <__bad_interrupt>
  68:	0c 94 78 00 	jmp	0xf0	; 0xf0 <__bad_interrupt>
  6c:	0c 94 78 00 	jmp	0xf0	; 0xf0 <__bad_interrupt>
  70:	0c 94 78 00 	jmp	0xf0	; 0xf0 <__bad_interrupt>
  74:	0c 94 78 00 	jmp	0xf0	; 0xf0 <__bad_interrupt>
  78:	0c 94 78 00 	jmp	0xf0	; 0xf0 <__bad_interrupt>
  7c:	0c 94 78 00 	jmp	0xf0	; 0xf0 <__bad_interrupt>
  80:	0c 94 78 00 	jmp	0xf0	; 0xf0 <__bad_interrupt>
  84:	0c 94 78 00 	jmp	0xf0	; 0xf0 <__bad_interrupt>
  88:	0c 94 78 00 	jmp	0xf0	; 0xf0 <__bad_interrupt>
  8c:	0c 94 78 00 	jmp	0xf0	; 0xf0 <__bad_interrupt>
  90:	0c 94 78 00 	jmp	0xf0	; 0xf0 <__bad_interrupt>
  94:	54 02       	muls	r21, r20
  96:	57 02       	muls	r21, r23
  98:	61 02       	muls	r22, r17
  9a:	6c 02       	muls	r22, r28
  9c:	77 02       	muls	r23, r23
  9e:	83 02       	muls	r24, r19
  a0:	74 02       	muls	r23, r20
  a2:	99 02       	muls	r25, r25
  a4:	99 02       	muls	r25, r25
  a6:	8f 02       	muls	r24, r31
  a8:	99 02       	muls	r25, r25
  aa:	99 02       	muls	r25, r25
  ac:	92 02       	muls	r25, r18
  ae:	99 02       	muls	r25, r25
  b0:	51 02       	muls	r21, r17
  b2:	99 02       	muls	r25, r25
  b4:	95 02       	muls	r25, r21

000000b6 <__ctors_end>:
  b6:	11 24       	eor	r1, r1
  b8:	1f be       	out	0x3f, r1	; 63
  ba:	cf ef       	ldi	r28, 0xFF	; 255
  bc:	d8 e0       	ldi	r29, 0x08	; 8
  be:	de bf       	out	0x3e, r29	; 62
  c0:	cd bf       	out	0x3d, r28	; 61

000000c2 <__do_copy_data>:
  c2:	11 e0       	ldi	r17, 0x01	; 1
  c4:	a0 e0       	ldi	r26, 0x00	; 0
  c6:	b1 e0       	ldi	r27, 0x01	; 1
  c8:	e8 ec       	ldi	r30, 0xC8	; 200
  ca:	fe e0       	ldi	r31, 0x0E	; 14
  cc:	02 c0       	rjmp	.+4      	; 0xd2 <__do_copy_data+0x10>
  ce:	05 90       	lpm	r0, Z+
  d0:	0d 92       	st	X+, r0
  d2:	a0 31       	cpi	r26, 0x10	; 16
  d4:	b1 07       	cpc	r27, r17
  d6:	d9 f7       	brne	.-10     	; 0xce <__do_copy_data+0xc>

000000d8 <__do_clear_bss>:
  d8:	11 e0       	ldi	r17, 0x01	; 1
  da:	a0 e1       	ldi	r26, 0x10	; 16
  dc:	b1 e0       	ldi	r27, 0x01	; 1
  de:	01 c0       	rjmp	.+2      	; 0xe2 <.do_clear_bss_start>

000000e0 <.do_clear_bss_loop>:
  e0:	1d 92       	st	X+, r1

000000e2 <.do_clear_bss_start>:
  e2:	ae 33       	cpi	r26, 0x3E	; 62
  e4:	b1 07       	cpc	r27, r17
  e6:	e1 f7       	brne	.-8      	; 0xe0 <.do_clear_bss_loop>
  e8:	0e 94 f3 06 	call	0xde6	; 0xde6 <main>
  ec:	0c 94 62 07 	jmp	0xec4	; 0xec4 <_exit>

000000f0 <__bad_interrupt>:
  f0:	0c 94 00 00 	jmp	0	; 0x0 <__vectors>

000000f4 <ADC_Reset>:
  f4:	80 91 7a 00 	lds	r24, 0x007A
  f8:	84 ff       	sbrs	r24, 4
  fa:	05 c0       	rjmp	.+10     	; 0x106 <ADC_Reset+0x12>
  fc:	80 91 7a 00 	lds	r24, 0x007A
 100:	80 61       	ori	r24, 0x10	; 16
 102:	80 93 7a 00 	sts	0x007A, r24
 106:	10 92 7a 00 	sts	0x007A, r1
 10a:	10 92 7b 00 	sts	0x007B, r1
 10e:	10 92 7c 00 	sts	0x007C, r1
 112:	08 95       	ret

00000114 <ADC_ADC1_Init>:
 114:	81 98       	cbi	0x10, 1	; 16
 116:	81 e6       	ldi	r24, 0x61	; 97
 118:	80 93 7c 00 	sts	0x007C, r24
 11c:	ea e7       	ldi	r30, 0x7A	; 122
 11e:	f0 e0       	ldi	r31, 0x00	; 0
 120:	82 ea       	ldi	r24, 0xA2	; 162
 122:	80 83       	st	Z, r24
 124:	80 81       	ld	r24, Z
 126:	80 64       	ori	r24, 0x40	; 64
 128:	80 83       	st	Z, r24
 12a:	08 95       	ret

0000012c <ADC_ADC1_TurnOff>:
 12c:	0e 94 7a 00 	call	0xf4	; 0xf4 <ADC_Reset>
 130:	81 9a       	sbi	0x10, 1	; 16
 132:	89 98       	cbi	0x11, 1	; 17
 134:	08 95       	ret

00000136 <ADC_ADC3_Init>:
 136:	83 ec       	ldi	r24, 0xC3	; 195
 138:	80 93 7c 00 	sts	0x007C, r24
 13c:	82 e8       	ldi	r24, 0x82	; 130
 13e:	80 93 7a 00 	sts	0x007A, r24
 142:	08 95       	ret

00000144 <ADC_ReadByte>:
 144:	90 91 7a 00 	lds	r25, 0x007A
 148:	89 2f       	mov	r24, r25
 14a:	80 71       	andi	r24, 0x10	; 16
 14c:	94 ff       	sbrs	r25, 4
 14e:	09 c0       	rjmp	.+18     	; 0x162 <ADC_ReadByte+0x1e>
 150:	80 91 78 00 	lds	r24, 0x0078
 154:	80 91 79 00 	lds	r24, 0x0079
 158:	90 91 7a 00 	lds	r25, 0x007A
 15c:	90 61       	ori	r25, 0x10	; 16
 15e:	90 93 7a 00 	sts	0x007A, r25
 162:	08 95       	ret

00000164 <ADC_ReadByteComplete>:
 164:	80 91 7a 00 	lds	r24, 0x007A
 168:	84 ff       	sbrs	r24, 4
 16a:	fc cf       	rjmp	.-8      	; 0x164 <ADC_ReadByteComplete>
 16c:	80 91 78 00 	lds	r24, 0x0078
 170:	80 91 79 00 	lds	r24, 0x0079
 174:	90 91 7a 00 	lds	r25, 0x007A
 178:	90 61       	ori	r25, 0x10	; 16
 17a:	90 93 7a 00 	sts	0x007A, r25
 17e:	08 95       	ret

00000180 <ADC_Read10Bit>:
 180:	80 91 7a 00 	lds	r24, 0x007A
 184:	84 ff       	sbrs	r24, 4
 186:	0c c0       	rjmp	.+24     	; 0x1a0 <ADC_Read10Bit+0x20>
 188:	80 91 78 00 	lds	r24, 0x0078
 18c:	20 91 79 00 	lds	r18, 0x0079
 190:	90 91 7a 00 	lds	r25, 0x007A
 194:	90 61       	ori	r25, 0x10	; 16
 196:	90 93 7a 00 	sts	0x007A, r25
 19a:	90 e0       	ldi	r25, 0x00	; 0
 19c:	92 2b       	or	r25, r18
 19e:	08 95       	ret
 1a0:	80 e0       	ldi	r24, 0x00	; 0
 1a2:	90 e8       	ldi	r25, 0x80	; 128
 1a4:	08 95       	ret

000001a6 <PORT_Init>:
 1a6:	25 9a       	sbi	0x04, 5	; 4
 1a8:	54 9a       	sbi	0x0a, 4	; 10
 1aa:	6b 9a       	sbi	0x0d, 3	; 13
 1ac:	10 ba       	out	0x10, r1	; 16
 1ae:	2d 98       	cbi	0x05, 5	; 5
 1b0:	5c 98       	cbi	0x0b, 4	; 11
 1b2:	73 9a       	sbi	0x0e, 3	; 14
 1b4:	08 95       	ret

000001b6 <Clock_Init>:
 1b6:	f8 94       	cli
 1b8:	e1 e6       	ldi	r30, 0x61	; 97
 1ba:	f0 e0       	ldi	r31, 0x00	; 0
 1bc:	80 e8       	ldi	r24, 0x80	; 128
 1be:	80 83       	st	Z, r24
 1c0:	10 82       	st	Z, r1
 1c2:	08 95       	ret

000001c4 <Watchdog_Init>:
 1c4:	e0 e6       	ldi	r30, 0x60	; 96
 1c6:	f0 e0       	ldi	r31, 0x00	; 0
 1c8:	80 81       	ld	r24, Z
 1ca:	88 61       	ori	r24, 0x18	; 24
 1cc:	80 83       	st	Z, r24
 1ce:	8e e0       	ldi	r24, 0x0E	; 14
 1d0:	80 83       	st	Z, r24
 1d2:	08 95       	ret

000001d4 <Basic_Init>:
 1d4:	0e 94 e2 00 	call	0x1c4	; 0x1c4 <Watchdog_Init>
 1d8:	0e 94 db 00 	call	0x1b6	; 0x1b6 <Clock_Init>
 1dc:	85 e0       	ldi	r24, 0x05	; 5
 1de:	90 e0       	ldi	r25, 0x00	; 0
 1e0:	0e 94 1a 06 	call	0xc34	; 0xc34 <TC0_16MHzWait_msWhile>
 1e4:	0e 94 d3 00 	call	0x1a6	; 0x1a6 <PORT_Init>
 1e8:	0e 94 8a 00 	call	0x114	; 0x114 <ADC_ADC1_Init>
 1ec:	0e 94 2e 03 	call	0x65c	; 0x65c <CAN_Init>
 1f0:	85 e0       	ldi	r24, 0x05	; 5
 1f2:	90 e0       	ldi	r25, 0x00	; 0
 1f4:	0e 94 1a 06 	call	0xc34	; 0xc34 <TC0_16MHzWait_msWhile>
 1f8:	0e 94 16 06 	call	0xc2c	; 0xc2c <TC0_16MHz_Stop>
 1fc:	81 e0       	ldi	r24, 0x01	; 1
 1fe:	0e 94 cd 03 	call	0x79a	; 0x79a <CAN_RXMOb_SetAddr>
 202:	60 e2       	ldi	r22, 0x20	; 32
 204:	7e e4       	ldi	r23, 0x4E	; 78
 206:	80 e0       	ldi	r24, 0x00	; 0
 208:	90 e0       	ldi	r25, 0x00	; 0
 20a:	0c 94 31 06 	jmp	0xc62	; 0xc62 <TC0_16MHzWait_msQuery>

0000020e <Basic_Runtime>:
 20e:	cf 93       	push	r28
 210:	df 93       	push	r29
 212:	ec 01       	movw	r28, r24
 214:	8f 30       	cpi	r24, 0x0F	; 15
 216:	91 05       	cpc	r25, r1
 218:	51 f4       	brne	.+20     	; 0x22e <Basic_Runtime+0x20>
 21a:	60 e2       	ldi	r22, 0x20	; 32
 21c:	7e e4       	ldi	r23, 0x4E	; 78
 21e:	81 e0       	ldi	r24, 0x01	; 1
 220:	90 e0       	ldi	r25, 0x00	; 0
 222:	0e 94 31 06 	call	0xc62	; 0xc62 <TC0_16MHzWait_msQuery>
 226:	88 23       	and	r24, r24
 228:	11 f0       	breq	.+4      	; 0x22e <Basic_Runtime+0x20>
 22a:	c5 e0       	ldi	r28, 0x05	; 5
 22c:	d0 e0       	ldi	r29, 0x00	; 0
 22e:	ce 01       	movw	r24, r28
 230:	df 91       	pop	r29
 232:	cf 91       	pop	r28
 234:	08 95       	ret

00000236 <Boot_Jump2App>:
 236:	0c 94 00 00 	jmp	0	; 0x0 <__vectors>
 23a:	08 95       	ret

0000023c <Boot_Jump2Bootloader>:
 23c:	0c 94 00 18 	jmp	0x3000	; 0x3000 <__data_load_end+0x2128>
 240:	08 95       	ret

00000242 <CAN_TXMOB_Working>:
 242:	cf 93       	push	r28
 244:	df 93       	push	r29
 246:	00 d0       	rcall	.+0      	; 0x248 <CAN_TXMOB_Working+0x6>
 248:	1f 92       	push	r1
 24a:	cd b7       	in	r28, 0x3d	; 61
 24c:	de b7       	in	r29, 0x3e	; 62
 24e:	81 e0       	ldi	r24, 0x01	; 1
 250:	89 83       	std	Y+1, r24	; 0x01
 252:	1a 82       	std	Y+2, r1	; 0x02
 254:	8d e0       	ldi	r24, 0x0D	; 13
 256:	8b 83       	std	Y+3, r24	; 0x03
 258:	ce 01       	movw	r24, r28
 25a:	01 96       	adiw	r24, 0x01	; 1
 25c:	0e 94 85 03 	call	0x70a	; 0x70a <CAN_TXMOB>
 260:	0f 90       	pop	r0
 262:	0f 90       	pop	r0
 264:	0f 90       	pop	r0
 266:	df 91       	pop	r29
 268:	cf 91       	pop	r28
 26a:	08 95       	ret

0000026c <CAN_TXMOB_ACK>:
 26c:	cf 93       	push	r28
 26e:	df 93       	push	r29
 270:	00 d0       	rcall	.+0      	; 0x272 <CAN_TXMOB_ACK+0x6>
 272:	1f 92       	push	r1
 274:	cd b7       	in	r28, 0x3d	; 61
 276:	de b7       	in	r29, 0x3e	; 62
 278:	81 e0       	ldi	r24, 0x01	; 1
 27a:	89 83       	std	Y+1, r24	; 0x01
 27c:	1a 82       	std	Y+2, r1	; 0x02
 27e:	8e e0       	ldi	r24, 0x0E	; 14
 280:	8b 83       	std	Y+3, r24	; 0x03
 282:	ce 01       	movw	r24, r28
 284:	01 96       	adiw	r24, 0x01	; 1
 286:	0e 94 85 03 	call	0x70a	; 0x70a <CAN_TXMOB>
 28a:	0f 90       	pop	r0
 28c:	0f 90       	pop	r0
 28e:	0f 90       	pop	r0
 290:	df 91       	pop	r29
 292:	cf 91       	pop	r28
 294:	08 95       	ret

00000296 <CAN_TXMOB_ACK_OneShot>:
 296:	cf 93       	push	r28
 298:	df 93       	push	r29
 29a:	00 d0       	rcall	.+0      	; 0x29c <CAN_TXMOB_ACK_OneShot+0x6>
 29c:	1f 92       	push	r1
 29e:	cd b7       	in	r28, 0x3d	; 61
 2a0:	de b7       	in	r29, 0x3e	; 62
 2a2:	81 e0       	ldi	r24, 0x01	; 1
 2a4:	89 83       	std	Y+1, r24	; 0x01
 2a6:	1a 82       	std	Y+2, r1	; 0x02
 2a8:	8b 83       	std	Y+3, r24	; 0x03
 2aa:	ce 01       	movw	r24, r28
 2ac:	01 96       	adiw	r24, 0x01	; 1
 2ae:	0e 94 85 03 	call	0x70a	; 0x70a <CAN_TXMOB>
 2b2:	0f 90       	pop	r0
 2b4:	0f 90       	pop	r0
 2b6:	0f 90       	pop	r0
 2b8:	df 91       	pop	r29
 2ba:	cf 91       	pop	r28
 2bc:	08 95       	ret

000002be <CAN_TXMOB_ACK_5Shots>:
 2be:	cf 93       	push	r28
 2c0:	df 93       	push	r29
 2c2:	00 d0       	rcall	.+0      	; 0x2c4 <CAN_TXMOB_ACK_5Shots+0x6>
 2c4:	1f 92       	push	r1
 2c6:	cd b7       	in	r28, 0x3d	; 61
 2c8:	de b7       	in	r29, 0x3e	; 62
 2ca:	81 e0       	ldi	r24, 0x01	; 1
 2cc:	89 83       	std	Y+1, r24	; 0x01
 2ce:	1a 82       	std	Y+2, r1	; 0x02
 2d0:	82 e0       	ldi	r24, 0x02	; 2
 2d2:	8b 83       	std	Y+3, r24	; 0x03
 2d4:	ce 01       	movw	r24, r28
 2d6:	01 96       	adiw	r24, 0x01	; 1
 2d8:	0e 94 85 03 	call	0x70a	; 0x70a <CAN_TXMOB>
 2dc:	0f 90       	pop	r0
 2de:	0f 90       	pop	r0
 2e0:	0f 90       	pop	r0
 2e2:	df 91       	pop	r29
 2e4:	cf 91       	pop	r28
 2e6:	08 95       	ret

000002e8 <CAN_TXMOB_ACK_Temp>:
 2e8:	cf 93       	push	r28
 2ea:	df 93       	push	r29
 2ec:	00 d0       	rcall	.+0      	; 0x2ee <CAN_TXMOB_ACK_Temp+0x6>
 2ee:	1f 92       	push	r1
 2f0:	cd b7       	in	r28, 0x3d	; 61
 2f2:	de b7       	in	r29, 0x3e	; 62
 2f4:	81 e0       	ldi	r24, 0x01	; 1
 2f6:	89 83       	std	Y+1, r24	; 0x01
 2f8:	1a 82       	std	Y+2, r1	; 0x02
 2fa:	83 e0       	ldi	r24, 0x03	; 3
 2fc:	8b 83       	std	Y+3, r24	; 0x03
 2fe:	ce 01       	movw	r24, r28
 300:	01 96       	adiw	r24, 0x01	; 1
 302:	0e 94 85 03 	call	0x70a	; 0x70a <CAN_TXMOB>
 306:	0f 90       	pop	r0
 308:	0f 90       	pop	r0
 30a:	0f 90       	pop	r0
 30c:	df 91       	pop	r29
 30e:	cf 91       	pop	r28
 310:	08 95       	ret

00000312 <CAN_TXMOB_ACK_Boot>:
 312:	cf 93       	push	r28
 314:	df 93       	push	r29
 316:	00 d0       	rcall	.+0      	; 0x318 <CAN_TXMOB_ACK_Boot+0x6>
 318:	1f 92       	push	r1
 31a:	cd b7       	in	r28, 0x3d	; 61
 31c:	de b7       	in	r29, 0x3e	; 62
 31e:	81 e0       	ldi	r24, 0x01	; 1
 320:	89 83       	std	Y+1, r24	; 0x01
 322:	1a 82       	std	Y+2, r1	; 0x02
 324:	80 e1       	ldi	r24, 0x10	; 16
 326:	8b 83       	std	Y+3, r24	; 0x03
 328:	ce 01       	movw	r24, r28
 32a:	01 96       	adiw	r24, 0x01	; 1
 32c:	0e 94 85 03 	call	0x70a	; 0x70a <CAN_TXMOB>
 330:	0f 90       	pop	r0
 332:	0f 90       	pop	r0
 334:	0f 90       	pop	r0
 336:	df 91       	pop	r29
 338:	cf 91       	pop	r28
 33a:	08 95       	ret

0000033c <CAN_TXMOB_USSREG>:
 33c:	cf 93       	push	r28
 33e:	df 93       	push	r29
 340:	00 d0       	rcall	.+0      	; 0x342 <CAN_TXMOB_USSREG+0x6>
 342:	00 d0       	rcall	.+0      	; 0x344 <CAN_TXMOB_USSREG+0x8>
 344:	cd b7       	in	r28, 0x3d	; 61
 346:	de b7       	in	r29, 0x3e	; 62
 348:	82 e0       	ldi	r24, 0x02	; 2
 34a:	89 83       	std	Y+1, r24	; 0x01
 34c:	1a 82       	std	Y+2, r1	; 0x02
 34e:	86 e0       	ldi	r24, 0x06	; 6
 350:	8b 83       	std	Y+3, r24	; 0x03
 352:	80 91 14 01 	lds	r24, 0x0114
 356:	8c 83       	std	Y+4, r24	; 0x04
 358:	ce 01       	movw	r24, r28
 35a:	01 96       	adiw	r24, 0x01	; 1
 35c:	0e 94 85 03 	call	0x70a	; 0x70a <CAN_TXMOB>
 360:	0f 90       	pop	r0
 362:	0f 90       	pop	r0
 364:	0f 90       	pop	r0
 366:	0f 90       	pop	r0
 368:	df 91       	pop	r29
 36a:	cf 91       	pop	r28
 36c:	08 95       	ret

0000036e <CAN_TXMOB_sVersion>:
 36e:	cf 93       	push	r28
 370:	df 93       	push	r29
 372:	00 d0       	rcall	.+0      	; 0x374 <CAN_TXMOB_sVersion+0x6>
 374:	00 d0       	rcall	.+0      	; 0x376 <CAN_TXMOB_sVersion+0x8>
 376:	1f 92       	push	r1
 378:	cd b7       	in	r28, 0x3d	; 61
 37a:	de b7       	in	r29, 0x3e	; 62
 37c:	85 e0       	ldi	r24, 0x05	; 5
 37e:	e0 e0       	ldi	r30, 0x00	; 0
 380:	f1 e0       	ldi	r31, 0x01	; 1
 382:	de 01       	movw	r26, r28
 384:	11 96       	adiw	r26, 0x01	; 1
 386:	01 90       	ld	r0, Z+
 388:	0d 92       	st	X+, r0
 38a:	8a 95       	dec	r24
 38c:	e1 f7       	brne	.-8      	; 0x386 <CAN_TXMOB_sVersion+0x18>
 38e:	ce 01       	movw	r24, r28
 390:	01 96       	adiw	r24, 0x01	; 1
 392:	0e 94 85 03 	call	0x70a	; 0x70a <CAN_TXMOB>
 396:	0f 90       	pop	r0
 398:	0f 90       	pop	r0
 39a:	0f 90       	pop	r0
 39c:	0f 90       	pop	r0
 39e:	0f 90       	pop	r0
 3a0:	df 91       	pop	r29
 3a2:	cf 91       	pop	r28
 3a4:	08 95       	ret

000003a6 <CAN_TXMOB_USDDREG>:
 3a6:	cf 93       	push	r28
 3a8:	df 93       	push	r29
 3aa:	00 d0       	rcall	.+0      	; 0x3ac <CAN_TXMOB_USDDREG+0x6>
 3ac:	00 d0       	rcall	.+0      	; 0x3ae <CAN_TXMOB_USDDREG+0x8>
 3ae:	1f 92       	push	r1
 3b0:	cd b7       	in	r28, 0x3d	; 61
 3b2:	de b7       	in	r29, 0x3e	; 62
 3b4:	85 e0       	ldi	r24, 0x05	; 5
 3b6:	e5 e0       	ldi	r30, 0x05	; 5
 3b8:	f1 e0       	ldi	r31, 0x01	; 1
 3ba:	de 01       	movw	r26, r28
 3bc:	11 96       	adiw	r26, 0x01	; 1
 3be:	01 90       	ld	r0, Z+
 3c0:	0d 92       	st	X+, r0
 3c2:	8a 95       	dec	r24
 3c4:	e1 f7       	brne	.-8      	; 0x3be <CAN_TXMOB_USDDREG+0x18>
 3c6:	80 91 12 01 	lds	r24, 0x0112
 3ca:	90 91 13 01 	lds	r25, 0x0113
 3ce:	9c 83       	std	Y+4, r25	; 0x04
 3d0:	8d 83       	std	Y+5, r24	; 0x05
 3d2:	ce 01       	movw	r24, r28
 3d4:	01 96       	adiw	r24, 0x01	; 1
 3d6:	0e 94 85 03 	call	0x70a	; 0x70a <CAN_TXMOB>
 3da:	0f 90       	pop	r0
 3dc:	0f 90       	pop	r0
 3de:	0f 90       	pop	r0
 3e0:	0f 90       	pop	r0
 3e2:	0f 90       	pop	r0
 3e4:	df 91       	pop	r29
 3e6:	cf 91       	pop	r28
 3e8:	08 95       	ret

000003ea <CAN_TXMOB_USDTREG>:
 3ea:	cf 93       	push	r28
 3ec:	df 93       	push	r29
 3ee:	00 d0       	rcall	.+0      	; 0x3f0 <CAN_TXMOB_USDTREG+0x6>
 3f0:	00 d0       	rcall	.+0      	; 0x3f2 <CAN_TXMOB_USDTREG+0x8>
 3f2:	1f 92       	push	r1
 3f4:	cd b7       	in	r28, 0x3d	; 61
 3f6:	de b7       	in	r29, 0x3e	; 62
 3f8:	85 e0       	ldi	r24, 0x05	; 5
 3fa:	ea e0       	ldi	r30, 0x0A	; 10
 3fc:	f1 e0       	ldi	r31, 0x01	; 1
 3fe:	de 01       	movw	r26, r28
 400:	11 96       	adiw	r26, 0x01	; 1
 402:	01 90       	ld	r0, Z+
 404:	0d 92       	st	X+, r0
 406:	8a 95       	dec	r24
 408:	e1 f7       	brne	.-8      	; 0x402 <CAN_TXMOB_USDTREG+0x18>
 40a:	80 91 10 01 	lds	r24, 0x0110
 40e:	90 91 11 01 	lds	r25, 0x0111
 412:	9c 83       	std	Y+4, r25	; 0x04
 414:	8d 83       	std	Y+5, r24	; 0x05
 416:	ce 01       	movw	r24, r28
 418:	01 96       	adiw	r24, 0x01	; 1
 41a:	0e 94 85 03 	call	0x70a	; 0x70a <CAN_TXMOB>
 41e:	0f 90       	pop	r0
 420:	0f 90       	pop	r0
 422:	0f 90       	pop	r0
 424:	0f 90       	pop	r0
 426:	0f 90       	pop	r0
 428:	df 91       	pop	r29
 42a:	cf 91       	pop	r28
 42c:	08 95       	ret

0000042e <CAN_USSREG>:
 42e:	83 30       	cpi	r24, 0x03	; 3
 430:	91 05       	cpc	r25, r1
 432:	89 f0       	breq	.+34     	; 0x456 <CAN_USSREG+0x28>
 434:	40 f4       	brcc	.+16     	; 0x446 <CAN_USSREG+0x18>
 436:	00 97       	sbiw	r24, 0x00	; 0
 438:	a9 f0       	breq	.+42     	; 0x464 <CAN_USSREG+0x36>
 43a:	02 97       	sbiw	r24, 0x02	; 2
 43c:	a9 f4       	brne	.+42     	; 0x468 <CAN_USSREG+0x3a>
 43e:	80 91 14 01 	lds	r24, 0x0114
 442:	86 2b       	or	r24, r22
 444:	0c c0       	rjmp	.+24     	; 0x45e <CAN_USSREG+0x30>
 446:	88 31       	cpi	r24, 0x18	; 24
 448:	91 05       	cpc	r25, r1
 44a:	61 f0       	breq	.+24     	; 0x464 <CAN_USSREG+0x36>
 44c:	49 97       	sbiw	r24, 0x19	; 25
 44e:	61 f4       	brne	.+24     	; 0x468 <CAN_USSREG+0x3a>
 450:	60 93 14 01 	sts	0x0114, r22
 454:	09 c0       	rjmp	.+18     	; 0x468 <CAN_USSREG+0x3a>
 456:	60 95       	com	r22
 458:	80 91 14 01 	lds	r24, 0x0114
 45c:	86 23       	and	r24, r22
 45e:	80 93 14 01 	sts	0x0114, r24
 462:	02 c0       	rjmp	.+4      	; 0x468 <CAN_USSREG+0x3a>
 464:	10 92 14 01 	sts	0x0114, r1
 468:	80 91 14 01 	lds	r24, 0x0114
 46c:	08 95       	ret

0000046e <CAN_RxParser>:
 46e:	cf 93       	push	r28
 470:	df 93       	push	r29
 472:	ec 01       	movw	r28, r24
 474:	0e 94 aa 03 	call	0x754	; 0x754 <CAN_RXMOB>
 478:	fc 01       	movw	r30, r24
 47a:	80 81       	ld	r24, Z
 47c:	88 23       	and	r24, r24
 47e:	09 f4       	brne	.+2      	; 0x482 <CAN_RxParser+0x14>
 480:	58 c0       	rjmp	.+176    	; 0x532 <CAN_RxParser+0xc4>
 482:	42 81       	ldd	r20, Z+2	; 0x02
 484:	83 81       	ldd	r24, Z+3	; 0x03
 486:	91 81       	ldd	r25, Z+1	; 0x01
 488:	99 23       	and	r25, r25
 48a:	09 f4       	brne	.+2      	; 0x48e <CAN_RxParser+0x20>
 48c:	52 c0       	rjmp	.+164    	; 0x532 <CAN_RxParser+0xc4>
 48e:	50 e0       	ldi	r21, 0x00	; 0
 490:	41 31       	cpi	r20, 0x11	; 17
 492:	51 05       	cpc	r21, r1
 494:	08 f0       	brcs	.+2      	; 0x498 <CAN_RxParser+0x2a>
 496:	4d c0       	rjmp	.+154    	; 0x532 <CAN_RxParser+0xc4>
 498:	fa 01       	movw	r30, r20
 49a:	e6 5b       	subi	r30, 0xB6	; 182
 49c:	ff 4f       	sbci	r31, 0xFF	; 255
 49e:	0c 94 4d 07 	jmp	0xe9a	; 0xe9a <__tablejump2__>
 4a2:	0e 94 36 01 	call	0x26c	; 0x26c <CAN_TXMOB_ACK>
 4a6:	45 c0       	rjmp	.+138    	; 0x532 <CAN_RxParser+0xc4>
 4a8:	0e 94 cd 03 	call	0x79a	; 0x79a <CAN_RXMOb_SetAddr>
 4ac:	42 c0       	rjmp	.+132    	; 0x532 <CAN_RxParser+0xc4>
 4ae:	cf 30       	cpi	r28, 0x0F	; 15
 4b0:	d1 05       	cpc	r29, r1
 4b2:	21 f4       	brne	.+8      	; 0x4bc <CAN_RxParser+0x4e>
 4b4:	0e 94 4b 01 	call	0x296	; 0x296 <CAN_TXMOB_ACK_OneShot>
 4b8:	81 e0       	ldi	r24, 0x01	; 1
 4ba:	14 c0       	rjmp	.+40     	; 0x4e4 <CAN_RxParser+0x76>
 4bc:	0e 94 21 01 	call	0x242	; 0x242 <CAN_TXMOB_Working>
 4c0:	38 c0       	rjmp	.+112    	; 0x532 <CAN_RxParser+0xc4>
 4c2:	cf 30       	cpi	r28, 0x0F	; 15
 4c4:	d1 05       	cpc	r29, r1
 4c6:	d1 f7       	brne	.-12     	; 0x4bc <CAN_RxParser+0x4e>
 4c8:	0e 94 5f 01 	call	0x2be	; 0x2be <CAN_TXMOB_ACK_5Shots>
 4cc:	80 e0       	ldi	r24, 0x00	; 0
 4ce:	90 e0       	ldi	r25, 0x00	; 0
 4d0:	0e 94 c6 04 	call	0x98c	; 0x98c <Sonic_5Shots>
 4d4:	82 e0       	ldi	r24, 0x02	; 2
 4d6:	06 c0       	rjmp	.+12     	; 0x4e4 <CAN_RxParser+0x76>
 4d8:	cf 30       	cpi	r28, 0x0F	; 15
 4da:	d1 05       	cpc	r29, r1
 4dc:	79 f7       	brne	.-34     	; 0x4bc <CAN_RxParser+0x4e>
 4de:	0e 94 74 01 	call	0x2e8	; 0x2e8 <CAN_TXMOB_ACK_Temp>
 4e2:	85 e0       	ldi	r24, 0x05	; 5
 4e4:	90 e0       	ldi	r25, 0x00	; 0
 4e6:	26 c0       	rjmp	.+76     	; 0x534 <CAN_RxParser+0xc6>
 4e8:	0e 94 9e 01 	call	0x33c	; 0x33c <CAN_TXMOB_USSREG>
 4ec:	22 c0       	rjmp	.+68     	; 0x532 <CAN_RxParser+0xc4>
 4ee:	80 91 14 01 	lds	r24, 0x0114
 4f2:	88 23       	and	r24, r24
 4f4:	19 f3       	breq	.-58     	; 0x4bc <CAN_RxParser+0x4e>
 4f6:	61 e0       	ldi	r22, 0x01	; 1
 4f8:	83 e0       	ldi	r24, 0x03	; 3
 4fa:	90 e0       	ldi	r25, 0x00	; 0
 4fc:	0e 94 17 02 	call	0x42e	; 0x42e <CAN_USSREG>
 500:	0e 94 d3 01 	call	0x3a6	; 0x3a6 <CAN_TXMOB_USDDREG>
 504:	16 c0       	rjmp	.+44     	; 0x532 <CAN_RxParser+0xc4>
 506:	80 91 14 01 	lds	r24, 0x0114
 50a:	88 23       	and	r24, r24
 50c:	b9 f2       	breq	.-82     	; 0x4bc <CAN_RxParser+0x4e>
 50e:	62 e0       	ldi	r22, 0x02	; 2
 510:	83 e0       	ldi	r24, 0x03	; 3
 512:	90 e0       	ldi	r25, 0x00	; 0
 514:	0e 94 17 02 	call	0x42e	; 0x42e <CAN_USSREG>
 518:	0e 94 f5 01 	call	0x3ea	; 0x3ea <CAN_TXMOB_USDTREG>
 51c:	0a c0       	rjmp	.+20     	; 0x532 <CAN_RxParser+0xc4>
 51e:	80 93 14 01 	sts	0x0114, r24
 522:	07 c0       	rjmp	.+14     	; 0x532 <CAN_RxParser+0xc4>
 524:	0e 94 b7 01 	call	0x36e	; 0x36e <CAN_TXMOB_sVersion>
 528:	04 c0       	rjmp	.+8      	; 0x532 <CAN_RxParser+0xc4>
 52a:	0e 94 89 01 	call	0x312	; 0x312 <CAN_TXMOB_ACK_Boot>
 52e:	0e 94 1e 01 	call	0x23c	; 0x23c <Boot_Jump2Bootloader>
 532:	ce 01       	movw	r24, r28
 534:	df 91       	pop	r29
 536:	cf 91       	pop	r28
 538:	08 95       	ret

0000053a <CAN_USDDREG>:
 53a:	83 30       	cpi	r24, 0x03	; 3
 53c:	91 05       	cpc	r25, r1
 53e:	b1 f0       	breq	.+44     	; 0x56c <CAN_USDDREG+0x32>
 540:	58 f4       	brcc	.+22     	; 0x558 <CAN_USDDREG+0x1e>
 542:	00 97       	sbiw	r24, 0x00	; 0
 544:	01 f1       	breq	.+64     	; 0x586 <CAN_USDDREG+0x4c>
 546:	02 97       	sbiw	r24, 0x02	; 2
 548:	11 f5       	brne	.+68     	; 0x58e <CAN_USDDREG+0x54>
 54a:	80 91 12 01 	lds	r24, 0x0112
 54e:	90 91 13 01 	lds	r25, 0x0113
 552:	86 2b       	or	r24, r22
 554:	97 2b       	or	r25, r23
 556:	12 c0       	rjmp	.+36     	; 0x57c <CAN_USDDREG+0x42>
 558:	88 31       	cpi	r24, 0x18	; 24
 55a:	91 05       	cpc	r25, r1
 55c:	a1 f0       	breq	.+40     	; 0x586 <CAN_USDDREG+0x4c>
 55e:	49 97       	sbiw	r24, 0x19	; 25
 560:	b1 f4       	brne	.+44     	; 0x58e <CAN_USDDREG+0x54>
 562:	70 93 13 01 	sts	0x0113, r23
 566:	60 93 12 01 	sts	0x0112, r22
 56a:	11 c0       	rjmp	.+34     	; 0x58e <CAN_USDDREG+0x54>
 56c:	60 95       	com	r22
 56e:	70 95       	com	r23
 570:	80 91 12 01 	lds	r24, 0x0112
 574:	90 91 13 01 	lds	r25, 0x0113
 578:	86 23       	and	r24, r22
 57a:	97 23       	and	r25, r23
 57c:	90 93 13 01 	sts	0x0113, r25
 580:	80 93 12 01 	sts	0x0112, r24
 584:	04 c0       	rjmp	.+8      	; 0x58e <CAN_USDDREG+0x54>
 586:	10 92 13 01 	sts	0x0113, r1
 58a:	10 92 12 01 	sts	0x0112, r1
 58e:	80 91 12 01 	lds	r24, 0x0112
 592:	90 91 13 01 	lds	r25, 0x0113
 596:	08 95       	ret

00000598 <CAN_USDTREG>:
 598:	83 30       	cpi	r24, 0x03	; 3
 59a:	91 05       	cpc	r25, r1
 59c:	b1 f0       	breq	.+44     	; 0x5ca <CAN_USDTREG+0x32>
 59e:	58 f4       	brcc	.+22     	; 0x5b6 <CAN_USDTREG+0x1e>
 5a0:	00 97       	sbiw	r24, 0x00	; 0
 5a2:	01 f1       	breq	.+64     	; 0x5e4 <CAN_USDTREG+0x4c>
 5a4:	02 97       	sbiw	r24, 0x02	; 2
 5a6:	11 f5       	brne	.+68     	; 0x5ec <CAN_USDTREG+0x54>
 5a8:	80 91 10 01 	lds	r24, 0x0110
 5ac:	90 91 11 01 	lds	r25, 0x0111
 5b0:	86 2b       	or	r24, r22
 5b2:	97 2b       	or	r25, r23
 5b4:	12 c0       	rjmp	.+36     	; 0x5da <CAN_USDTREG+0x42>
 5b6:	88 31       	cpi	r24, 0x18	; 24
 5b8:	91 05       	cpc	r25, r1
 5ba:	a1 f0       	breq	.+40     	; 0x5e4 <CAN_USDTREG+0x4c>
 5bc:	49 97       	sbiw	r24, 0x19	; 25
 5be:	b1 f4       	brne	.+44     	; 0x5ec <CAN_USDTREG+0x54>
 5c0:	70 93 11 01 	sts	0x0111, r23
 5c4:	60 93 10 01 	sts	0x0110, r22
 5c8:	11 c0       	rjmp	.+34     	; 0x5ec <CAN_USDTREG+0x54>
 5ca:	60 95       	com	r22
 5cc:	70 95       	com	r23
 5ce:	80 91 10 01 	lds	r24, 0x0110
 5d2:	90 91 11 01 	lds	r25, 0x0111
 5d6:	86 23       	and	r24, r22
 5d8:	97 23       	and	r25, r23
 5da:	90 93 11 01 	sts	0x0111, r25
 5de:	80 93 10 01 	sts	0x0110, r24
 5e2:	04 c0       	rjmp	.+8      	; 0x5ec <CAN_USDTREG+0x54>
 5e4:	10 92 11 01 	sts	0x0111, r1
 5e8:	10 92 10 01 	sts	0x0110, r1
 5ec:	80 91 10 01 	lds	r24, 0x0110
 5f0:	90 91 11 01 	lds	r25, 0x0111
 5f4:	08 95       	ret

000005f6 <CAN_RXMOb_Init>:
 5f6:	90 e2       	ldi	r25, 0x20	; 32
 5f8:	90 93 ed 00 	sts	0x00ED, r25
 5fc:	ef ee       	ldi	r30, 0xEF	; 239
 5fe:	f0 e0       	ldi	r31, 0x00	; 0
 600:	80 81       	ld	r24, Z
 602:	81 60       	ori	r24, 0x01	; 1
 604:	80 83       	st	Z, r24
 606:	10 92 f0 00 	sts	0x00F0, r1
 60a:	10 92 f1 00 	sts	0x00F1, r1
 60e:	90 93 f2 00 	sts	0x00F2, r25
 612:	10 92 f3 00 	sts	0x00F3, r1
 616:	10 92 f4 00 	sts	0x00F4, r1
 61a:	10 92 f5 00 	sts	0x00F5, r1
 61e:	10 92 f6 00 	sts	0x00F6, r1
 622:	10 92 f7 00 	sts	0x00F7, r1
 626:	80 81       	ld	r24, Z
 628:	80 68       	ori	r24, 0x80	; 128
 62a:	80 83       	st	Z, r24
 62c:	08 95       	ret

0000062e <CAN_ClearMOb>:
 62e:	80 e0       	ldi	r24, 0x00	; 0
 630:	90 e0       	ldi	r25, 0x00	; 0
 632:	9c 01       	movw	r18, r24
 634:	44 e0       	ldi	r20, 0x04	; 4
 636:	22 0f       	add	r18, r18
 638:	33 1f       	adc	r19, r19
 63a:	4a 95       	dec	r20
 63c:	e1 f7       	brne	.-8      	; 0x636 <CAN_ClearMOb+0x8>
 63e:	20 93 ed 00 	sts	0x00ED, r18
 642:	20 91 ee 00 	lds	r18, 0x00EE
 646:	10 92 ee 00 	sts	0x00EE, r1
 64a:	10 92 ef 00 	sts	0x00EF, r1
 64e:	10 92 fa 00 	sts	0x00FA, r1
 652:	01 96       	adiw	r24, 0x01	; 1
 654:	8e 30       	cpi	r24, 0x0E	; 14
 656:	91 05       	cpc	r25, r1
 658:	61 f7       	brne	.-40     	; 0x632 <CAN_ClearMOb+0x4>
 65a:	08 95       	ret

0000065c <CAN_Init>:
 65c:	55 9a       	sbi	0x0a, 5	; 10
 65e:	56 98       	cbi	0x0a, 6	; 10
 660:	81 e0       	ldi	r24, 0x01	; 1
 662:	80 93 d8 00 	sts	0x00D8, r24
 666:	8f ef       	ldi	r24, 0xFF	; 255
 668:	80 93 da 00 	sts	0x00DA, r24
 66c:	10 92 db 00 	sts	0x00DB, r1
 670:	10 92 df 00 	sts	0x00DF, r1
 674:	10 92 de 00 	sts	0x00DE, r1
 678:	0e 94 17 03 	call	0x62e	; 0x62e <CAN_ClearMOb>
 67c:	82 e1       	ldi	r24, 0x12	; 18
 67e:	80 93 e2 00 	sts	0x00E2, r24
 682:	8c e0       	ldi	r24, 0x0C	; 12
 684:	80 93 e3 00 	sts	0x00E3, r24
 688:	87 e3       	ldi	r24, 0x37	; 55
 68a:	80 93 e4 00 	sts	0x00E4, r24
 68e:	10 92 e5 00 	sts	0x00E5, r1
 692:	82 e0       	ldi	r24, 0x02	; 2
 694:	80 93 d8 00 	sts	0x00D8, r24
 698:	80 91 d9 00 	lds	r24, 0x00D9
 69c:	82 ff       	sbrs	r24, 2
 69e:	fc cf       	rjmp	.-8      	; 0x698 <CAN_Init+0x3c>
 6a0:	0e 94 fb 02 	call	0x5f6	; 0x5f6 <CAN_RXMOb_Init>
 6a4:	60 e0       	ldi	r22, 0x00	; 0
 6a6:	80 e0       	ldi	r24, 0x00	; 0
 6a8:	90 e0       	ldi	r25, 0x00	; 0
 6aa:	0e 94 17 02 	call	0x42e	; 0x42e <CAN_USSREG>
 6ae:	60 e0       	ldi	r22, 0x00	; 0
 6b0:	70 e0       	ldi	r23, 0x00	; 0
 6b2:	80 e0       	ldi	r24, 0x00	; 0
 6b4:	90 e0       	ldi	r25, 0x00	; 0
 6b6:	0e 94 9d 02 	call	0x53a	; 0x53a <CAN_USDDREG>
 6ba:	60 e0       	ldi	r22, 0x00	; 0
 6bc:	70 e0       	ldi	r23, 0x00	; 0
 6be:	80 e0       	ldi	r24, 0x00	; 0
 6c0:	90 e0       	ldi	r25, 0x00	; 0
 6c2:	0c 94 cc 02 	jmp	0x598	; 0x598 <CAN_USDTREG>

000006c6 <CAN_TXOK>:
 6c6:	80 e1       	ldi	r24, 0x10	; 16
 6c8:	80 93 ed 00 	sts	0x00ED, r24
 6cc:	90 91 ee 00 	lds	r25, 0x00EE
 6d0:	89 2f       	mov	r24, r25
 6d2:	80 74       	andi	r24, 0x40	; 64
 6d4:	96 ff       	sbrs	r25, 6
 6d6:	06 c0       	rjmp	.+12     	; 0x6e4 <CAN_TXOK+0x1e>
 6d8:	80 91 ee 00 	lds	r24, 0x00EE
 6dc:	8f 7b       	andi	r24, 0xBF	; 191
 6de:	80 93 ee 00 	sts	0x00EE, r24
 6e2:	81 e0       	ldi	r24, 0x01	; 1
 6e4:	08 95       	ret

000006e6 <CAN_RXOK>:
 6e6:	80 91 ef 00 	lds	r24, 0x00EF
 6ea:	80 68       	ori	r24, 0x80	; 128
 6ec:	80 93 ef 00 	sts	0x00EF, r24
 6f0:	90 91 ee 00 	lds	r25, 0x00EE
 6f4:	89 2f       	mov	r24, r25
 6f6:	80 72       	andi	r24, 0x20	; 32
 6f8:	95 ff       	sbrs	r25, 5
 6fa:	06 c0       	rjmp	.+12     	; 0x708 <CAN_RXOK+0x22>
 6fc:	80 91 ee 00 	lds	r24, 0x00EE
 700:	8f 7d       	andi	r24, 0xDF	; 223
 702:	80 93 ee 00 	sts	0x00EE, r24
 706:	81 e0       	ldi	r24, 0x01	; 1
 708:	08 95       	ret

0000070a <CAN_TXMOB>:
 70a:	20 e1       	ldi	r18, 0x10	; 16
 70c:	20 93 ed 00 	sts	0x00ED, r18
 710:	10 92 ef 00 	sts	0x00EF, r1
 714:	fc 01       	movw	r30, r24
 716:	20 81       	ld	r18, Z
 718:	31 81       	ldd	r19, Z+1	; 0x01
 71a:	32 96       	adiw	r30, 0x02	; 2
 71c:	90 91 ef 00 	lds	r25, 0x00EF
 720:	82 2f       	mov	r24, r18
 722:	8f 70       	andi	r24, 0x0F	; 15
 724:	89 2b       	or	r24, r25
 726:	80 93 ef 00 	sts	0x00EF, r24
 72a:	10 92 f0 00 	sts	0x00F0, r1
 72e:	10 92 f1 00 	sts	0x00F1, r1
 732:	10 92 f2 00 	sts	0x00F2, r1
 736:	30 93 f3 00 	sts	0x00F3, r19
 73a:	22 23       	and	r18, r18
 73c:	29 f0       	breq	.+10     	; 0x748 <CAN_TXMOB+0x3e>
 73e:	81 91       	ld	r24, Z+
 740:	80 93 fa 00 	sts	0x00FA, r24
 744:	21 50       	subi	r18, 0x01	; 1
 746:	f9 cf       	rjmp	.-14     	; 0x73a <CAN_TXMOB+0x30>
 748:	80 91 ef 00 	lds	r24, 0x00EF
 74c:	80 64       	ori	r24, 0x40	; 64
 74e:	80 93 ef 00 	sts	0x00EF, r24
 752:	08 95       	ret

00000754 <CAN_RXMOB>:
 754:	80 e2       	ldi	r24, 0x20	; 32
 756:	80 93 ed 00 	sts	0x00ED, r24
 75a:	0e 94 73 03 	call	0x6e6	; 0x6e6 <CAN_RXOK>
 75e:	88 23       	and	r24, r24
 760:	b9 f0       	breq	.+46     	; 0x790 <CAN_RXMOB+0x3c>
 762:	80 91 ef 00 	lds	r24, 0x00EF
 766:	8f 70       	andi	r24, 0x0F	; 15
 768:	80 93 15 01 	sts	0x0115, r24
 76c:	90 91 f3 00 	lds	r25, 0x00F3
 770:	90 93 16 01 	sts	0x0116, r25
 774:	92 e0       	ldi	r25, 0x02	; 2
 776:	98 0f       	add	r25, r24
 778:	82 e0       	ldi	r24, 0x02	; 2
 77a:	89 17       	cp	r24, r25
 77c:	59 f0       	breq	.+22     	; 0x794 <CAN_RXMOB+0x40>
 77e:	20 91 fa 00 	lds	r18, 0x00FA
 782:	e8 2f       	mov	r30, r24
 784:	f0 e0       	ldi	r31, 0x00	; 0
 786:	eb 5e       	subi	r30, 0xEB	; 235
 788:	fe 4f       	sbci	r31, 0xFE	; 254
 78a:	20 83       	st	Z, r18
 78c:	8f 5f       	subi	r24, 0xFF	; 255
 78e:	f5 cf       	rjmp	.-22     	; 0x77a <CAN_RXMOB+0x26>
 790:	10 92 15 01 	sts	0x0115, r1
 794:	85 e1       	ldi	r24, 0x15	; 21
 796:	91 e0       	ldi	r25, 0x01	; 1
 798:	08 95       	ret

0000079a <CAN_RXMOb_SetAddr>:
 79a:	90 e2       	ldi	r25, 0x20	; 32
 79c:	90 93 ed 00 	sts	0x00ED, r25
 7a0:	10 92 f0 00 	sts	0x00F0, r1
 7a4:	10 92 f1 00 	sts	0x00F1, r1
 7a8:	10 92 f2 00 	sts	0x00F2, r1
 7ac:	80 93 f3 00 	sts	0x00F3, r24
 7b0:	10 92 f4 00 	sts	0x00F4, r1
 7b4:	10 92 f5 00 	sts	0x00F5, r1
 7b8:	10 92 f6 00 	sts	0x00F6, r1
 7bc:	8f ef       	ldi	r24, 0xFF	; 255
 7be:	80 93 f7 00 	sts	0x00F7, r24
 7c2:	ef ee       	ldi	r30, 0xEF	; 239
 7c4:	f0 e0       	ldi	r31, 0x00	; 0
 7c6:	80 81       	ld	r24, Z
 7c8:	80 68       	ori	r24, 0x80	; 128
 7ca:	80 83       	st	Z, r24
 7cc:	08 95       	ret

000007ce <Sonic_Temp_Calc>:
 7ce:	89 3c       	cpi	r24, 0xC9	; 201
 7d0:	91 05       	cpc	r25, r1
 7d2:	64 f0       	brlt	.+24     	; 0x7ec <Sonic_Temp_Calc+0x1e>
 7d4:	88 5c       	subi	r24, 0xC8	; 200
 7d6:	91 09       	sbc	r25, r1
 7d8:	9c 01       	movw	r18, r24
 7da:	35 95       	asr	r19
 7dc:	27 95       	ror	r18
 7de:	35 95       	asr	r19
 7e0:	27 95       	ror	r18
 7e2:	42 2f       	mov	r20, r18
 7e4:	83 70       	andi	r24, 0x03	; 3
 7e6:	99 27       	eor	r25, r25
 7e8:	29 e1       	ldi	r18, 0x19	; 25
 7ea:	11 c0       	rjmp	.+34     	; 0x80e <Sonic_Temp_Calc+0x40>
 7ec:	88 3c       	cpi	r24, 0xC8	; 200
 7ee:	91 05       	cpc	r25, r1
 7f0:	91 f0       	breq	.+36     	; 0x816 <Sonic_Temp_Calc+0x48>
 7f2:	28 ec       	ldi	r18, 0xC8	; 200
 7f4:	30 e0       	ldi	r19, 0x00	; 0
 7f6:	28 1b       	sub	r18, r24
 7f8:	39 0b       	sbc	r19, r25
 7fa:	c9 01       	movw	r24, r18
 7fc:	95 95       	asr	r25
 7fe:	87 95       	ror	r24
 800:	95 95       	asr	r25
 802:	87 95       	ror	r24
 804:	48 2f       	mov	r20, r24
 806:	40 68       	ori	r20, 0x80	; 128
 808:	23 70       	andi	r18, 0x03	; 3
 80a:	33 27       	eor	r19, r19
 80c:	89 e1       	ldi	r24, 0x19	; 25
 80e:	82 9f       	mul	r24, r18
 810:	80 2d       	mov	r24, r0
 812:	11 24       	eor	r1, r1
 814:	02 c0       	rjmp	.+4      	; 0x81a <Sonic_Temp_Calc+0x4c>
 816:	80 e0       	ldi	r24, 0x00	; 0
 818:	40 e0       	ldi	r20, 0x00	; 0
 81a:	90 e0       	ldi	r25, 0x00	; 0
 81c:	94 2b       	or	r25, r20
 81e:	08 95       	ret

00000820 <Sonic_Temp>:
 820:	80 91 20 01 	lds	r24, 0x0120
 824:	81 11       	cpse	r24, r1
 826:	0a c0       	rjmp	.+20     	; 0x83c <Sonic_Temp+0x1c>
 828:	0e 94 9b 00 	call	0x136	; 0x136 <ADC_ADC3_Init>
 82c:	65 e0       	ldi	r22, 0x05	; 5
 82e:	70 e0       	ldi	r23, 0x00	; 0
 830:	80 e0       	ldi	r24, 0x00	; 0
 832:	90 e0       	ldi	r25, 0x00	; 0
 834:	0e 94 87 06 	call	0xd0e	; 0xd0e <TC2_16MHzWait_msQuery>
 838:	81 e0       	ldi	r24, 0x01	; 1
 83a:	10 c0       	rjmp	.+32     	; 0x85c <Sonic_Temp+0x3c>
 83c:	81 30       	cpi	r24, 0x01	; 1
 83e:	99 f4       	brne	.+38     	; 0x866 <Sonic_Temp+0x46>
 840:	65 e0       	ldi	r22, 0x05	; 5
 842:	70 e0       	ldi	r23, 0x00	; 0
 844:	81 e0       	ldi	r24, 0x01	; 1
 846:	90 e0       	ldi	r25, 0x00	; 0
 848:	0e 94 87 06 	call	0xd0e	; 0xd0e <TC2_16MHzWait_msQuery>
 84c:	88 23       	and	r24, r24
 84e:	41 f0       	breq	.+16     	; 0x860 <Sonic_Temp+0x40>
 850:	80 91 7a 00 	lds	r24, 0x007A
 854:	80 64       	ori	r24, 0x40	; 64
 856:	80 93 7a 00 	sts	0x007A, r24
 85a:	82 e0       	ldi	r24, 0x02	; 2
 85c:	80 93 20 01 	sts	0x0120, r24
 860:	85 e0       	ldi	r24, 0x05	; 5
 862:	90 e0       	ldi	r25, 0x00	; 0
 864:	08 95       	ret
 866:	82 30       	cpi	r24, 0x02	; 2
 868:	d9 f7       	brne	.-10     	; 0x860 <Sonic_Temp+0x40>
 86a:	0e 94 c0 00 	call	0x180	; 0x180 <ADC_Read10Bit>
 86e:	97 fd       	sbrc	r25, 7
 870:	f7 cf       	rjmp	.-18     	; 0x860 <Sonic_Temp+0x40>
 872:	0e 94 e7 03 	call	0x7ce	; 0x7ce <Sonic_Temp_Calc>
 876:	bc 01       	movw	r22, r24
 878:	89 e1       	ldi	r24, 0x19	; 25
 87a:	90 e0       	ldi	r25, 0x00	; 0
 87c:	0e 94 cc 02 	call	0x598	; 0x598 <CAN_USDTREG>
 880:	62 e0       	ldi	r22, 0x02	; 2
 882:	82 e0       	ldi	r24, 0x02	; 2
 884:	90 e0       	ldi	r25, 0x00	; 0
 886:	0e 94 17 02 	call	0x42e	; 0x42e <CAN_USSREG>
 88a:	10 92 20 01 	sts	0x0120, r1
 88e:	8f e0       	ldi	r24, 0x0F	; 15
 890:	90 e0       	ldi	r25, 0x00	; 0
 892:	08 95       	ret

00000894 <Sonic_StartMeasurement>:
 894:	0e 94 96 00 	call	0x12c	; 0x12c <ADC_ADC1_TurnOff>
 898:	0e 94 b2 06 	call	0xd64	; 0xd64 <TC3_Sonic_Init>
 89c:	73 98       	cbi	0x0e, 3	; 14
 89e:	0e 94 e1 06 	call	0xdc2	; 0xdc2 <TC3_Sonic_Send>
 8a2:	73 9a       	sbi	0x0e, 3	; 14
 8a4:	0e 94 d1 06 	call	0xda2	; 0xda2 <TC3_Sonic_StartTimer>
 8a8:	0c 94 8a 00 	jmp	0x114	; 0x114 <ADC_ADC1_Init>

000008ac <Sonic_Time2mm>:
 8ac:	cf 92       	push	r12
 8ae:	df 92       	push	r13
 8b0:	ef 92       	push	r14
 8b2:	ff 92       	push	r15
 8b4:	cf 93       	push	r28
 8b6:	df 93       	push	r29
 8b8:	00 d0       	rcall	.+0      	; 0x8ba <Sonic_Time2mm+0xe>
 8ba:	00 d0       	rcall	.+0      	; 0x8bc <Sonic_Time2mm+0x10>
 8bc:	cd b7       	in	r28, 0x3d	; 61
 8be:	de b7       	in	r29, 0x3e	; 62
 8c0:	fc 01       	movw	r30, r24
 8c2:	22 81       	ldd	r18, Z+2	; 0x02
 8c4:	82 2f       	mov	r24, r18
 8c6:	90 e0       	ldi	r25, 0x00	; 0
 8c8:	a0 e0       	ldi	r26, 0x00	; 0
 8ca:	b0 e0       	ldi	r27, 0x00	; 0
 8cc:	44 27       	eor	r20, r20
 8ce:	58 2f       	mov	r21, r24
 8d0:	69 2f       	mov	r22, r25
 8d2:	7a 2f       	mov	r23, r26
 8d4:	81 81       	ldd	r24, Z+1	; 0x01
 8d6:	48 2b       	or	r20, r24
 8d8:	22 27       	eor	r18, r18
 8da:	34 2f       	mov	r19, r20
 8dc:	45 2f       	mov	r20, r21
 8de:	56 2f       	mov	r21, r22
 8e0:	80 81       	ld	r24, Z
 8e2:	28 2b       	or	r18, r24
 8e4:	60 e0       	ldi	r22, 0x00	; 0
 8e6:	70 e0       	ldi	r23, 0x00	; 0
 8e8:	87 e1       	ldi	r24, 0x17	; 23
 8ea:	90 e0       	ldi	r25, 0x00	; 0
 8ec:	29 83       	std	Y+1, r18	; 0x01
 8ee:	3a 83       	std	Y+2, r19	; 0x02
 8f0:	4b 83       	std	Y+3, r20	; 0x03
 8f2:	5c 83       	std	Y+4, r21	; 0x04
 8f4:	0e 94 cc 02 	call	0x598	; 0x598 <CAN_USDTREG>
 8f8:	29 81       	ldd	r18, Y+1	; 0x01
 8fa:	3a 81       	ldd	r19, Y+2	; 0x02
 8fc:	4b 81       	ldd	r20, Y+3	; 0x03
 8fe:	5c 81       	ldd	r21, Y+4	; 0x04
 900:	97 ff       	sbrs	r25, 7
 902:	0a c0       	rjmp	.+20     	; 0x918 <__stack+0x19>
 904:	9f 77       	andi	r25, 0x7F	; 127
 906:	8a ef       	ldi	r24, 0xFA	; 250
 908:	98 02       	muls	r25, r24
 90a:	60 01       	movw	r12, r0
 90c:	11 24       	eor	r1, r1
 90e:	ed e0       	ldi	r30, 0x0D	; 13
 910:	ce 1a       	sub	r12, r30
 912:	e3 ef       	ldi	r30, 0xF3	; 243
 914:	de 0a       	sbc	r13, r30
 916:	08 c0       	rjmp	.+16     	; 0x928 <__stack+0x29>
 918:	f6 e0       	ldi	r31, 0x06	; 6
 91a:	9f 02       	muls	r25, r31
 91c:	60 01       	movw	r12, r0
 91e:	11 24       	eor	r1, r1
 920:	8d e0       	ldi	r24, 0x0D	; 13
 922:	c8 1a       	sub	r12, r24
 924:	83 ef       	ldi	r24, 0xF3	; 243
 926:	d8 0a       	sbc	r13, r24
 928:	ee 24       	eor	r14, r14
 92a:	d7 fc       	sbrc	r13, 7
 92c:	e0 94       	com	r14
 92e:	fe 2c       	mov	r15, r14
 930:	a1 e7       	ldi	r26, 0x71	; 113
 932:	b2 e0       	ldi	r27, 0x02	; 2
 934:	0e 94 10 07 	call	0xe20	; 0xe20 <__muluhisi3>
 938:	20 e1       	ldi	r18, 0x10	; 16
 93a:	37 e2       	ldi	r19, 0x27	; 39
 93c:	40 e0       	ldi	r20, 0x00	; 0
 93e:	50 e0       	ldi	r21, 0x00	; 0
 940:	0e 94 2b 07 	call	0xe56	; 0xe56 <__udivmodsi4>
 944:	ca 01       	movw	r24, r20
 946:	b9 01       	movw	r22, r18
 948:	a7 01       	movw	r20, r14
 94a:	96 01       	movw	r18, r12
 94c:	0e 94 1b 07 	call	0xe36	; 0xe36 <__mulsi3>
 950:	24 e1       	ldi	r18, 0x14	; 20
 952:	30 e0       	ldi	r19, 0x00	; 0
 954:	40 e0       	ldi	r20, 0x00	; 0
 956:	50 e0       	ldi	r21, 0x00	; 0
 958:	0e 94 2b 07 	call	0xe56	; 0xe56 <__udivmodsi4>
 95c:	ca 01       	movw	r24, r20
 95e:	b9 01       	movw	r22, r18
 960:	28 ee       	ldi	r18, 0xE8	; 232
 962:	33 e0       	ldi	r19, 0x03	; 3
 964:	40 e0       	ldi	r20, 0x00	; 0
 966:	50 e0       	ldi	r21, 0x00	; 0
 968:	0e 94 2b 07 	call	0xe56	; 0xe56 <__udivmodsi4>
 96c:	2f 5d       	subi	r18, 0xDF	; 223
 96e:	3f 4f       	sbci	r19, 0xFF	; 255
 970:	4f 4f       	sbci	r20, 0xFF	; 255
 972:	5f 4f       	sbci	r21, 0xFF	; 255
 974:	c9 01       	movw	r24, r18
 976:	0f 90       	pop	r0
 978:	0f 90       	pop	r0
 97a:	0f 90       	pop	r0
 97c:	0f 90       	pop	r0
 97e:	df 91       	pop	r29
 980:	cf 91       	pop	r28
 982:	ff 90       	pop	r15
 984:	ef 90       	pop	r14
 986:	df 90       	pop	r13
 988:	cf 90       	pop	r12
 98a:	08 95       	ret

0000098c <Sonic_5Shots>:
 98c:	af 92       	push	r10
 98e:	bf 92       	push	r11
 990:	cf 92       	push	r12
 992:	df 92       	push	r13
 994:	ef 92       	push	r14
 996:	ff 92       	push	r15
 998:	0f 93       	push	r16
 99a:	1f 93       	push	r17
 99c:	cf 93       	push	r28
 99e:	df 93       	push	r29
 9a0:	cd b7       	in	r28, 0x3d	; 61
 9a2:	de b7       	in	r29, 0x3e	; 62
 9a4:	2a 97       	sbiw	r28, 0x0a	; 10
 9a6:	0f b6       	in	r0, 0x3f	; 63
 9a8:	f8 94       	cli
 9aa:	de bf       	out	0x3e, r29	; 62
 9ac:	0f be       	out	0x3f, r0	; 63
 9ae:	cd bf       	out	0x3d, r28	; 61
 9b0:	8e 01       	movw	r16, r28
 9b2:	0f 5f       	subi	r16, 0xFF	; 255
 9b4:	1f 4f       	sbci	r17, 0xFF	; 255
 9b6:	2a e0       	ldi	r18, 0x0A	; 10
 9b8:	f8 01       	movw	r30, r16
 9ba:	11 92       	st	Z+, r1
 9bc:	2a 95       	dec	r18
 9be:	e9 f7       	brne	.-6      	; 0x9ba <Sonic_5Shots+0x2e>
 9c0:	00 97       	sbiw	r24, 0x00	; 0
 9c2:	41 f4       	brne	.+16     	; 0x9d4 <Sonic_5Shots+0x48>
 9c4:	10 92 35 01 	sts	0x0135, r1
 9c8:	61 e0       	ldi	r22, 0x01	; 1
 9ca:	83 e0       	ldi	r24, 0x03	; 3
 9cc:	90 e0       	ldi	r25, 0x00	; 0
 9ce:	0e 94 17 02 	call	0x42e	; 0x42e <CAN_USSREG>
 9d2:	ba c0       	rjmp	.+372    	; 0xb48 <Sonic_5Shots+0x1bc>
 9d4:	01 97       	sbiw	r24, 0x01	; 1
 9d6:	09 f0       	breq	.+2      	; 0x9da <Sonic_5Shots+0x4e>
 9d8:	b7 c0       	rjmp	.+366    	; 0xb48 <Sonic_5Shots+0x1bc>
 9da:	80 91 35 01 	lds	r24, 0x0135
 9de:	81 11       	cpse	r24, r1
 9e0:	04 c0       	rjmp	.+8      	; 0x9ea <Sonic_5Shots+0x5e>
 9e2:	0e 94 4a 04 	call	0x894	; 0x894 <Sonic_StartMeasurement>
 9e6:	81 e0       	ldi	r24, 0x01	; 1
 9e8:	92 c0       	rjmp	.+292    	; 0xb0e <Sonic_5Shots+0x182>
 9ea:	81 30       	cpi	r24, 0x01	; 1
 9ec:	e9 f5       	brne	.+122    	; 0xa68 <Sonic_5Shots+0xdc>
 9ee:	0e 94 b2 00 	call	0x164	; 0x164 <ADC_ReadByteComplete>
 9f2:	86 3e       	cpi	r24, 0xE6	; 230
 9f4:	98 f4       	brcc	.+38     	; 0xa1c <Sonic_5Shots+0x90>
 9f6:	c0 9b       	sbis	0x18, 0	; 24
 9f8:	a7 c0       	rjmp	.+334    	; 0xb48 <Sonic_5Shots+0x1bc>
 9fa:	c0 9a       	sbi	0x18, 0	; 24
 9fc:	80 91 34 01 	lds	r24, 0x0134
 a00:	90 e0       	ldi	r25, 0x00	; 0
 a02:	fc 01       	movw	r30, r24
 a04:	ee 0f       	add	r30, r30
 a06:	ff 1f       	adc	r31, r31
 a08:	e8 0f       	add	r30, r24
 a0a:	f9 1f       	adc	r31, r25
 a0c:	eb 5d       	subi	r30, 0xDB	; 219
 a0e:	fe 4f       	sbci	r31, 0xFE	; 254
 a10:	82 81       	ldd	r24, Z+2	; 0x02
 a12:	8f 5f       	subi	r24, 0xFF	; 255
 a14:	82 83       	std	Z+2, r24	; 0x02
 a16:	84 30       	cpi	r24, 0x04	; 4
 a18:	08 f4       	brcc	.+2      	; 0xa1c <Sonic_5Shots+0x90>
 a1a:	96 c0       	rjmp	.+300    	; 0xb48 <Sonic_5Shots+0x1bc>
 a1c:	0e 94 c3 06 	call	0xd86	; 0xd86 <TC3_Sonic_StopTimer>
 a20:	20 91 34 01 	lds	r18, 0x0134
 a24:	82 2f       	mov	r24, r18
 a26:	90 e0       	ldi	r25, 0x00	; 0
 a28:	30 91 94 00 	lds	r19, 0x0094
 a2c:	fc 01       	movw	r30, r24
 a2e:	ee 0f       	add	r30, r30
 a30:	ff 1f       	adc	r31, r31
 a32:	e8 0f       	add	r30, r24
 a34:	f9 1f       	adc	r31, r25
 a36:	eb 5d       	subi	r30, 0xDB	; 219
 a38:	fe 4f       	sbci	r31, 0xFE	; 254
 a3a:	30 83       	st	Z, r19
 a3c:	80 91 95 00 	lds	r24, 0x0095
 a40:	81 83       	std	Z+1, r24	; 0x01
 a42:	24 30       	cpi	r18, 0x04	; 4
 a44:	10 f0       	brcs	.+4      	; 0xa4a <Sonic_5Shots+0xbe>
 a46:	82 e0       	ldi	r24, 0x02	; 2
 a48:	62 c0       	rjmp	.+196    	; 0xb0e <Sonic_5Shots+0x182>
 a4a:	68 ec       	ldi	r22, 0xC8	; 200
 a4c:	70 e0       	ldi	r23, 0x00	; 0
 a4e:	80 e0       	ldi	r24, 0x00	; 0
 a50:	90 e0       	ldi	r25, 0x00	; 0
 a52:	0e 94 87 06 	call	0xd0e	; 0xd0e <TC2_16MHzWait_msQuery>
 a56:	84 e0       	ldi	r24, 0x04	; 4
 a58:	80 93 35 01 	sts	0x0135, r24
 a5c:	80 91 34 01 	lds	r24, 0x0134
 a60:	8f 5f       	subi	r24, 0xFF	; 255
 a62:	80 93 34 01 	sts	0x0134, r24
 a66:	70 c0       	rjmp	.+224    	; 0xb48 <Sonic_5Shots+0x1bc>
 a68:	82 30       	cpi	r24, 0x02	; 2
 a6a:	09 f0       	breq	.+2      	; 0xa6e <Sonic_5Shots+0xe2>
 a6c:	53 c0       	rjmp	.+166    	; 0xb14 <Sonic_5Shots+0x188>
 a6e:	10 92 34 01 	sts	0x0134, r1
 a72:	c1 2c       	mov	r12, r1
 a74:	d1 2c       	mov	r13, r1
 a76:	76 01       	movw	r14, r12
 a78:	80 91 34 01 	lds	r24, 0x0134
 a7c:	85 30       	cpi	r24, 0x05	; 5
 a7e:	60 f5       	brcc	.+88     	; 0xad8 <Sonic_5Shots+0x14c>
 a80:	90 e0       	ldi	r25, 0x00	; 0
 a82:	5c 01       	movw	r10, r24
 a84:	aa 0c       	add	r10, r10
 a86:	bb 1c       	adc	r11, r11
 a88:	8a 0d       	add	r24, r10
 a8a:	9b 1d       	adc	r25, r11
 a8c:	8b 5d       	subi	r24, 0xDB	; 219
 a8e:	9e 4f       	sbci	r25, 0xFE	; 254
 a90:	0e 94 56 04 	call	0x8ac	; 0x8ac <Sonic_Time2mm>
 a94:	f8 01       	movw	r30, r16
 a96:	ea 0d       	add	r30, r10
 a98:	fb 1d       	adc	r31, r11
 a9a:	91 83       	std	Z+1, r25	; 0x01
 a9c:	80 83       	st	Z, r24
 a9e:	40 91 34 01 	lds	r20, 0x0134
 aa2:	24 2f       	mov	r18, r20
 aa4:	30 e0       	ldi	r19, 0x00	; 0
 aa6:	f9 01       	movw	r30, r18
 aa8:	ee 0f       	add	r30, r30
 aaa:	ff 1f       	adc	r31, r31
 aac:	d8 01       	movw	r26, r16
 aae:	ae 0f       	add	r26, r30
 ab0:	bf 1f       	adc	r27, r31
 ab2:	8d 91       	ld	r24, X+
 ab4:	9c 91       	ld	r25, X
 ab6:	aa 27       	eor	r26, r26
 ab8:	97 fd       	sbrc	r25, 7
 aba:	a0 95       	com	r26
 abc:	ba 2f       	mov	r27, r26
 abe:	c8 0e       	add	r12, r24
 ac0:	d9 1e       	adc	r13, r25
 ac2:	ea 1e       	adc	r14, r26
 ac4:	fb 1e       	adc	r15, r27
 ac6:	e2 0f       	add	r30, r18
 ac8:	f3 1f       	adc	r31, r19
 aca:	eb 5d       	subi	r30, 0xDB	; 219
 acc:	fe 4f       	sbci	r31, 0xFE	; 254
 ace:	12 82       	std	Z+2, r1	; 0x02
 ad0:	4f 5f       	subi	r20, 0xFF	; 255
 ad2:	40 93 34 01 	sts	0x0134, r20
 ad6:	d0 cf       	rjmp	.-96     	; 0xa78 <Sonic_5Shots+0xec>
 ad8:	c7 01       	movw	r24, r14
 ada:	b6 01       	movw	r22, r12
 adc:	25 e0       	ldi	r18, 0x05	; 5
 ade:	30 e0       	ldi	r19, 0x00	; 0
 ae0:	40 e0       	ldi	r20, 0x00	; 0
 ae2:	50 e0       	ldi	r21, 0x00	; 0
 ae4:	0e 94 2b 07 	call	0xe56	; 0xe56 <__udivmodsi4>
 ae8:	b9 01       	movw	r22, r18
 aea:	89 e1       	ldi	r24, 0x19	; 25
 aec:	90 e0       	ldi	r25, 0x00	; 0
 aee:	0e 94 9d 02 	call	0x53a	; 0x53a <CAN_USDDREG>
 af2:	61 e0       	ldi	r22, 0x01	; 1
 af4:	82 e0       	ldi	r24, 0x02	; 2
 af6:	90 e0       	ldi	r25, 0x00	; 0
 af8:	0e 94 17 02 	call	0x42e	; 0x42e <CAN_USSREG>
 afc:	68 ec       	ldi	r22, 0xC8	; 200
 afe:	70 e0       	ldi	r23, 0x00	; 0
 b00:	80 e0       	ldi	r24, 0x00	; 0
 b02:	90 e0       	ldi	r25, 0x00	; 0
 b04:	0e 94 87 06 	call	0xd0e	; 0xd0e <TC2_16MHzWait_msQuery>
 b08:	10 92 34 01 	sts	0x0134, r1
 b0c:	83 e0       	ldi	r24, 0x03	; 3
 b0e:	80 93 35 01 	sts	0x0135, r24
 b12:	1a c0       	rjmp	.+52     	; 0xb48 <Sonic_5Shots+0x1bc>
 b14:	83 30       	cpi	r24, 0x03	; 3
 b16:	69 f4       	brne	.+26     	; 0xb32 <Sonic_5Shots+0x1a6>
 b18:	68 ec       	ldi	r22, 0xC8	; 200
 b1a:	70 e0       	ldi	r23, 0x00	; 0
 b1c:	81 e0       	ldi	r24, 0x01	; 1
 b1e:	90 e0       	ldi	r25, 0x00	; 0
 b20:	0e 94 87 06 	call	0xd0e	; 0xd0e <TC2_16MHzWait_msQuery>
 b24:	88 23       	and	r24, r24
 b26:	81 f0       	breq	.+32     	; 0xb48 <Sonic_5Shots+0x1bc>
 b28:	10 92 35 01 	sts	0x0135, r1
 b2c:	8f e0       	ldi	r24, 0x0F	; 15
 b2e:	90 e0       	ldi	r25, 0x00	; 0
 b30:	0d c0       	rjmp	.+26     	; 0xb4c <Sonic_5Shots+0x1c0>
 b32:	84 30       	cpi	r24, 0x04	; 4
 b34:	49 f4       	brne	.+18     	; 0xb48 <Sonic_5Shots+0x1bc>
 b36:	68 ec       	ldi	r22, 0xC8	; 200
 b38:	70 e0       	ldi	r23, 0x00	; 0
 b3a:	81 e0       	ldi	r24, 0x01	; 1
 b3c:	90 e0       	ldi	r25, 0x00	; 0
 b3e:	0e 94 87 06 	call	0xd0e	; 0xd0e <TC2_16MHzWait_msQuery>
 b42:	81 11       	cpse	r24, r1
 b44:	10 92 35 01 	sts	0x0135, r1
 b48:	82 e0       	ldi	r24, 0x02	; 2
 b4a:	90 e0       	ldi	r25, 0x00	; 0
 b4c:	2a 96       	adiw	r28, 0x0a	; 10
 b4e:	0f b6       	in	r0, 0x3f	; 63
 b50:	f8 94       	cli
 b52:	de bf       	out	0x3e, r29	; 62
 b54:	0f be       	out	0x3f, r0	; 63
 b56:	cd bf       	out	0x3d, r28	; 61
 b58:	df 91       	pop	r29
 b5a:	cf 91       	pop	r28
 b5c:	1f 91       	pop	r17
 b5e:	0f 91       	pop	r16
 b60:	ff 90       	pop	r15
 b62:	ef 90       	pop	r14
 b64:	df 90       	pop	r13
 b66:	cf 90       	pop	r12
 b68:	bf 90       	pop	r11
 b6a:	af 90       	pop	r10
 b6c:	08 95       	ret

00000b6e <Sonic_OneShot>:
 b6e:	80 91 24 01 	lds	r24, 0x0124
 b72:	81 11       	cpse	r24, r1
 b74:	04 c0       	rjmp	.+8      	; 0xb7e <Sonic_OneShot+0x10>
 b76:	0e 94 4a 04 	call	0x894	; 0x894 <Sonic_StartMeasurement>
 b7a:	81 e0       	ldi	r24, 0x01	; 1
 b7c:	35 c0       	rjmp	.+106    	; 0xbe8 <Sonic_OneShot+0x7a>
 b7e:	81 30       	cpi	r24, 0x01	; 1
 b80:	d1 f4       	brne	.+52     	; 0xbb6 <Sonic_OneShot+0x48>
 b82:	0e 94 b2 00 	call	0x164	; 0x164 <ADC_ReadByteComplete>
 b86:	86 3e       	cpi	r24, 0xE6	; 230
 b88:	50 f4       	brcc	.+20     	; 0xb9e <Sonic_OneShot+0x30>
 b8a:	c0 9b       	sbis	0x18, 0	; 24
 b8c:	2f c0       	rjmp	.+94     	; 0xbec <Sonic_OneShot+0x7e>
 b8e:	c0 9a       	sbi	0x18, 0	; 24
 b90:	80 91 23 01 	lds	r24, 0x0123
 b94:	8f 5f       	subi	r24, 0xFF	; 255
 b96:	80 93 23 01 	sts	0x0123, r24
 b9a:	84 30       	cpi	r24, 0x04	; 4
 b9c:	38 f1       	brcs	.+78     	; 0xbec <Sonic_OneShot+0x7e>
 b9e:	0e 94 c3 06 	call	0xd86	; 0xd86 <TC3_Sonic_StopTimer>
 ba2:	80 91 94 00 	lds	r24, 0x0094
 ba6:	80 93 21 01 	sts	0x0121, r24
 baa:	80 91 95 00 	lds	r24, 0x0095
 bae:	80 93 22 01 	sts	0x0122, r24
 bb2:	82 e0       	ldi	r24, 0x02	; 2
 bb4:	19 c0       	rjmp	.+50     	; 0xbe8 <Sonic_OneShot+0x7a>
 bb6:	82 30       	cpi	r24, 0x02	; 2
 bb8:	e1 f4       	brne	.+56     	; 0xbf2 <Sonic_OneShot+0x84>
 bba:	81 e2       	ldi	r24, 0x21	; 33
 bbc:	91 e0       	ldi	r25, 0x01	; 1
 bbe:	0e 94 56 04 	call	0x8ac	; 0x8ac <Sonic_Time2mm>
 bc2:	bc 01       	movw	r22, r24
 bc4:	89 e1       	ldi	r24, 0x19	; 25
 bc6:	90 e0       	ldi	r25, 0x00	; 0
 bc8:	0e 94 9d 02 	call	0x53a	; 0x53a <CAN_USDDREG>
 bcc:	61 e0       	ldi	r22, 0x01	; 1
 bce:	82 e0       	ldi	r24, 0x02	; 2
 bd0:	90 e0       	ldi	r25, 0x00	; 0
 bd2:	0e 94 17 02 	call	0x42e	; 0x42e <CAN_USSREG>
 bd6:	10 92 23 01 	sts	0x0123, r1
 bda:	68 ec       	ldi	r22, 0xC8	; 200
 bdc:	70 e0       	ldi	r23, 0x00	; 0
 bde:	80 e0       	ldi	r24, 0x00	; 0
 be0:	90 e0       	ldi	r25, 0x00	; 0
 be2:	0e 94 87 06 	call	0xd0e	; 0xd0e <TC2_16MHzWait_msQuery>
 be6:	83 e0       	ldi	r24, 0x03	; 3
 be8:	80 93 24 01 	sts	0x0124, r24
 bec:	81 e0       	ldi	r24, 0x01	; 1
 bee:	90 e0       	ldi	r25, 0x00	; 0
 bf0:	08 95       	ret
 bf2:	83 30       	cpi	r24, 0x03	; 3
 bf4:	d9 f7       	brne	.-10     	; 0xbec <Sonic_OneShot+0x7e>
 bf6:	68 ec       	ldi	r22, 0xC8	; 200
 bf8:	70 e0       	ldi	r23, 0x00	; 0
 bfa:	81 e0       	ldi	r24, 0x01	; 1
 bfc:	90 e0       	ldi	r25, 0x00	; 0
 bfe:	0e 94 87 06 	call	0xd0e	; 0xd0e <TC2_16MHzWait_msQuery>
 c02:	88 23       	and	r24, r24
 c04:	99 f3       	breq	.-26     	; 0xbec <Sonic_OneShot+0x7e>
 c06:	10 92 24 01 	sts	0x0124, r1
 c0a:	8f e0       	ldi	r24, 0x0F	; 15
 c0c:	90 e0       	ldi	r25, 0x00	; 0
 c0e:	08 95       	ret

00000c10 <TC_Wait_1clk>:
 c10:	00 00       	nop
 c12:	08 95       	ret

00000c14 <TC0_16MHzWait_1ms_Init>:
 c14:	16 bc       	out	0x26, r1	; 38
 c16:	83 e0       	ldi	r24, 0x03	; 3
 c18:	84 bd       	out	0x24, r24	; 36
 c1a:	08 95       	ret

00000c1c <TC0_16MHzWait_1ms_Query>:
 c1c:	95 b3       	in	r25, 0x15	; 21
 c1e:	89 2f       	mov	r24, r25
 c20:	81 70       	andi	r24, 0x01	; 1
 c22:	90 ff       	sbrs	r25, 0
 c24:	02 c0       	rjmp	.+4      	; 0xc2a <TC0_16MHzWait_1ms_Query+0xe>
 c26:	a8 9a       	sbi	0x15, 0	; 21
 c28:	81 e0       	ldi	r24, 0x01	; 1
 c2a:	08 95       	ret

00000c2c <TC0_16MHz_Stop>:
 c2c:	84 b5       	in	r24, 0x24	; 36
 c2e:	8c 7f       	andi	r24, 0xFC	; 252
 c30:	84 bd       	out	0x24, r24	; 36
 c32:	08 95       	ret

00000c34 <TC0_16MHzWait_msWhile>:
 c34:	0f 93       	push	r16
 c36:	1f 93       	push	r17
 c38:	cf 93       	push	r28
 c3a:	df 93       	push	r29
 c3c:	8c 01       	movw	r16, r24
 c3e:	0e 94 0a 06 	call	0xc14	; 0xc14 <TC0_16MHzWait_1ms_Init>
 c42:	c0 e0       	ldi	r28, 0x00	; 0
 c44:	d0 e0       	ldi	r29, 0x00	; 0
 c46:	c0 17       	cp	r28, r16
 c48:	d1 07       	cpc	r29, r17
 c4a:	34 f4       	brge	.+12     	; 0xc58 <TC0_16MHzWait_msWhile+0x24>
 c4c:	0e 94 0e 06 	call	0xc1c	; 0xc1c <TC0_16MHzWait_1ms_Query>
 c50:	88 23       	and	r24, r24
 c52:	e1 f3       	breq	.-8      	; 0xc4c <TC0_16MHzWait_msWhile+0x18>
 c54:	21 96       	adiw	r28, 0x01	; 1
 c56:	f7 cf       	rjmp	.-18     	; 0xc46 <TC0_16MHzWait_msWhile+0x12>
 c58:	df 91       	pop	r29
 c5a:	cf 91       	pop	r28
 c5c:	1f 91       	pop	r17
 c5e:	0f 91       	pop	r16
 c60:	08 95       	ret

00000c62 <TC0_16MHzWait_msQuery>:
 c62:	00 97       	sbiw	r24, 0x00	; 0
 c64:	59 f4       	brne	.+22     	; 0xc7c <TC0_16MHzWait_msQuery+0x1a>
 c66:	10 92 3d 01 	sts	0x013D, r1
 c6a:	10 92 3c 01 	sts	0x013C, r1
 c6e:	70 93 3b 01 	sts	0x013B, r23
 c72:	60 93 3a 01 	sts	0x013A, r22
 c76:	0e 94 0a 06 	call	0xc14	; 0xc14 <TC0_16MHzWait_1ms_Init>
 c7a:	02 c0       	rjmp	.+4      	; 0xc80 <TC0_16MHzWait_msQuery+0x1e>
 c7c:	01 97       	sbiw	r24, 0x01	; 1
 c7e:	11 f0       	breq	.+4      	; 0xc84 <TC0_16MHzWait_msQuery+0x22>
 c80:	80 e0       	ldi	r24, 0x00	; 0
 c82:	08 95       	ret
 c84:	0e 94 0e 06 	call	0xc1c	; 0xc1c <TC0_16MHzWait_1ms_Query>
 c88:	88 23       	and	r24, r24
 c8a:	d1 f3       	breq	.-12     	; 0xc80 <TC0_16MHzWait_msQuery+0x1e>
 c8c:	80 91 3c 01 	lds	r24, 0x013C
 c90:	90 91 3d 01 	lds	r25, 0x013D
 c94:	01 96       	adiw	r24, 0x01	; 1
 c96:	90 93 3d 01 	sts	0x013D, r25
 c9a:	80 93 3c 01 	sts	0x013C, r24
 c9e:	20 91 3a 01 	lds	r18, 0x013A
 ca2:	30 91 3b 01 	lds	r19, 0x013B
 ca6:	28 17       	cp	r18, r24
 ca8:	39 07       	cpc	r19, r25
 caa:	54 f7       	brge	.-44     	; 0xc80 <TC0_16MHzWait_msQuery+0x1e>
 cac:	10 92 3d 01 	sts	0x013D, r1
 cb0:	10 92 3c 01 	sts	0x013C, r1
 cb4:	81 e0       	ldi	r24, 0x01	; 1
 cb6:	08 95       	ret

00000cb8 <TC2_16MHzWait_1ms_Init>:
 cb8:	10 92 b2 00 	sts	0x00B2, r1
 cbc:	84 e0       	ldi	r24, 0x04	; 4
 cbe:	80 93 b0 00 	sts	0x00B0, r24
 cc2:	08 95       	ret

00000cc4 <TC2_16MHzWait_1ms_Query>:
 cc4:	97 b3       	in	r25, 0x17	; 23
 cc6:	89 2f       	mov	r24, r25
 cc8:	81 70       	andi	r24, 0x01	; 1
 cca:	90 ff       	sbrs	r25, 0
 ccc:	02 c0       	rjmp	.+4      	; 0xcd2 <TC2_16MHzWait_1ms_Query+0xe>
 cce:	b8 9a       	sbi	0x17, 0	; 23
 cd0:	81 e0       	ldi	r24, 0x01	; 1
 cd2:	08 95       	ret

00000cd4 <TC2_16MHz_Stop>:
 cd4:	e0 eb       	ldi	r30, 0xB0	; 176
 cd6:	f0 e0       	ldi	r31, 0x00	; 0
 cd8:	80 81       	ld	r24, Z
 cda:	8b 7f       	andi	r24, 0xFB	; 251
 cdc:	80 83       	st	Z, r24
 cde:	08 95       	ret

00000ce0 <TC2_16MHzWait_msWhile>:
 ce0:	0f 93       	push	r16
 ce2:	1f 93       	push	r17
 ce4:	cf 93       	push	r28
 ce6:	df 93       	push	r29
 ce8:	8c 01       	movw	r16, r24
 cea:	0e 94 5c 06 	call	0xcb8	; 0xcb8 <TC2_16MHzWait_1ms_Init>
 cee:	c0 e0       	ldi	r28, 0x00	; 0
 cf0:	d0 e0       	ldi	r29, 0x00	; 0
 cf2:	c0 17       	cp	r28, r16
 cf4:	d1 07       	cpc	r29, r17
 cf6:	34 f4       	brge	.+12     	; 0xd04 <TC2_16MHzWait_msWhile+0x24>
 cf8:	0e 94 62 06 	call	0xcc4	; 0xcc4 <TC2_16MHzWait_1ms_Query>
 cfc:	88 23       	and	r24, r24
 cfe:	e1 f3       	breq	.-8      	; 0xcf8 <TC2_16MHzWait_msWhile+0x18>
 d00:	21 96       	adiw	r28, 0x01	; 1
 d02:	f7 cf       	rjmp	.-18     	; 0xcf2 <TC2_16MHzWait_msWhile+0x12>
 d04:	df 91       	pop	r29
 d06:	cf 91       	pop	r28
 d08:	1f 91       	pop	r17
 d0a:	0f 91       	pop	r16
 d0c:	08 95       	ret

00000d0e <TC2_16MHzWait_msQuery>:
 d0e:	00 97       	sbiw	r24, 0x00	; 0
 d10:	59 f4       	brne	.+22     	; 0xd28 <TC2_16MHzWait_msQuery+0x1a>
 d12:	10 92 39 01 	sts	0x0139, r1
 d16:	10 92 38 01 	sts	0x0138, r1
 d1a:	70 93 37 01 	sts	0x0137, r23
 d1e:	60 93 36 01 	sts	0x0136, r22
 d22:	0e 94 5c 06 	call	0xcb8	; 0xcb8 <TC2_16MHzWait_1ms_Init>
 d26:	02 c0       	rjmp	.+4      	; 0xd2c <TC2_16MHzWait_msQuery+0x1e>
 d28:	01 97       	sbiw	r24, 0x01	; 1
 d2a:	11 f0       	breq	.+4      	; 0xd30 <TC2_16MHzWait_msQuery+0x22>
 d2c:	80 e0       	ldi	r24, 0x00	; 0
 d2e:	08 95       	ret
 d30:	0e 94 62 06 	call	0xcc4	; 0xcc4 <TC2_16MHzWait_1ms_Query>
 d34:	88 23       	and	r24, r24
 d36:	d1 f3       	breq	.-12     	; 0xd2c <TC2_16MHzWait_msQuery+0x1e>
 d38:	80 91 38 01 	lds	r24, 0x0138
 d3c:	90 91 39 01 	lds	r25, 0x0139
 d40:	01 96       	adiw	r24, 0x01	; 1
 d42:	90 93 39 01 	sts	0x0139, r25
 d46:	80 93 38 01 	sts	0x0138, r24
 d4a:	20 91 36 01 	lds	r18, 0x0136
 d4e:	30 91 37 01 	lds	r19, 0x0137
 d52:	28 17       	cp	r18, r24
 d54:	39 07       	cpc	r19, r25
 d56:	54 f7       	brge	.-44     	; 0xd2c <TC2_16MHzWait_msQuery+0x1e>
 d58:	10 92 39 01 	sts	0x0139, r1
 d5c:	10 92 38 01 	sts	0x0138, r1
 d60:	81 e0       	ldi	r24, 0x01	; 1
 d62:	08 95       	ret

00000d64 <TC3_Sonic_Init>:
 d64:	82 e8       	ldi	r24, 0x82	; 130
 d66:	80 93 80 00 	sts	0x0080, r24
 d6a:	88 e1       	ldi	r24, 0x18	; 24
 d6c:	80 93 81 00 	sts	0x0081, r24
 d70:	10 92 87 00 	sts	0x0087, r1
 d74:	80 e8       	ldi	r24, 0x80	; 128
 d76:	80 93 86 00 	sts	0x0086, r24
 d7a:	10 92 89 00 	sts	0x0089, r1
 d7e:	80 e4       	ldi	r24, 0x40	; 64
 d80:	80 93 88 00 	sts	0x0088, r24
 d84:	08 95       	ret

00000d86 <TC3_Sonic_StopTimer>:
 d86:	10 92 91 00 	sts	0x0091, r1
 d8a:	08 95       	ret

00000d8c <TC3_Sonic_ResetTimer>:
 d8c:	10 92 90 00 	sts	0x0090, r1
 d90:	10 92 91 00 	sts	0x0091, r1
 d94:	10 92 95 00 	sts	0x0095, r1
 d98:	10 92 94 00 	sts	0x0094, r1
 d9c:	c0 9a       	sbi	0x18, 0	; 24
 d9e:	c1 9a       	sbi	0x18, 1	; 24
 da0:	08 95       	ret

00000da2 <TC3_Sonic_StartTimer>:
 da2:	0e 94 c6 06 	call	0xd8c	; 0xd8c <TC3_Sonic_ResetTimer>
 da6:	80 e3       	ldi	r24, 0x30	; 48
 da8:	80 93 99 00 	sts	0x0099, r24
 dac:	10 92 98 00 	sts	0x0098, r1
 db0:	10 92 90 00 	sts	0x0090, r1
 db4:	81 e0       	ldi	r24, 0x01	; 1
 db6:	80 93 91 00 	sts	0x0091, r24
 dba:	c1 9b       	sbis	0x18, 1	; 24
 dbc:	fe cf       	rjmp	.-4      	; 0xdba <TC3_Sonic_StartTimer+0x18>
 dbe:	c1 9a       	sbi	0x18, 1	; 24
 dc0:	08 95       	ret

00000dc2 <TC3_Sonic_Send>:
 dc2:	80 91 81 00 	lds	r24, 0x0081
 dc6:	81 60       	ori	r24, 0x01	; 1
 dc8:	80 93 81 00 	sts	0x0081, r24
 dcc:	8f e1       	ldi	r24, 0x1F	; 31
 dce:	81 50       	subi	r24, 0x01	; 1
 dd0:	21 f0       	breq	.+8      	; 0xdda <TC3_Sonic_Send+0x18>
 dd2:	b1 9b       	sbis	0x16, 1	; 22
 dd4:	fe cf       	rjmp	.-4      	; 0xdd2 <TC3_Sonic_Send+0x10>
 dd6:	b1 9a       	sbi	0x16, 1	; 22
 dd8:	fa cf       	rjmp	.-12     	; 0xdce <TC3_Sonic_Send+0xc>
 dda:	80 91 81 00 	lds	r24, 0x0081
 dde:	8e 7f       	andi	r24, 0xFE	; 254
 de0:	80 93 81 00 	sts	0x0081, r24
 de4:	08 95       	ret

00000de6 <main>:
 de6:	0e 94 ea 00 	call	0x1d4	; 0x1d4 <Basic_Init>
 dea:	85 e0       	ldi	r24, 0x05	; 5
 dec:	90 e0       	ldi	r25, 0x00	; 0
 dee:	a8 95       	wdr
 df0:	0e 94 07 01 	call	0x20e	; 0x20e <Basic_Runtime>
 df4:	0e 94 37 02 	call	0x46e	; 0x46e <CAN_RxParser>
 df8:	82 30       	cpi	r24, 0x02	; 2
 dfa:	91 05       	cpc	r25, r1
 dfc:	49 f0       	breq	.+18     	; 0xe10 <main+0x2a>
 dfe:	85 30       	cpi	r24, 0x05	; 5
 e00:	91 05       	cpc	r25, r1
 e02:	59 f0       	breq	.+22     	; 0xe1a <main+0x34>
 e04:	81 30       	cpi	r24, 0x01	; 1
 e06:	91 05       	cpc	r25, r1
 e08:	91 f7       	brne	.-28     	; 0xdee <main+0x8>
 e0a:	0e 94 b7 05 	call	0xb6e	; 0xb6e <Sonic_OneShot>
 e0e:	ef cf       	rjmp	.-34     	; 0xdee <main+0x8>
 e10:	81 e0       	ldi	r24, 0x01	; 1
 e12:	90 e0       	ldi	r25, 0x00	; 0
 e14:	0e 94 c6 04 	call	0x98c	; 0x98c <Sonic_5Shots>
 e18:	ea cf       	rjmp	.-44     	; 0xdee <main+0x8>
 e1a:	0e 94 10 04 	call	0x820	; 0x820 <Sonic_Temp>
 e1e:	e7 cf       	rjmp	.-50     	; 0xdee <main+0x8>

00000e20 <__muluhisi3>:
 e20:	0e 94 53 07 	call	0xea6	; 0xea6 <__umulhisi3>
 e24:	a5 9f       	mul	r26, r21
 e26:	90 0d       	add	r25, r0
 e28:	b4 9f       	mul	r27, r20
 e2a:	90 0d       	add	r25, r0
 e2c:	a4 9f       	mul	r26, r20
 e2e:	80 0d       	add	r24, r0
 e30:	91 1d       	adc	r25, r1
 e32:	11 24       	eor	r1, r1
 e34:	08 95       	ret

00000e36 <__mulsi3>:
 e36:	db 01       	movw	r26, r22
 e38:	8f 93       	push	r24
 e3a:	9f 93       	push	r25
 e3c:	0e 94 10 07 	call	0xe20	; 0xe20 <__muluhisi3>
 e40:	bf 91       	pop	r27
 e42:	af 91       	pop	r26
 e44:	a2 9f       	mul	r26, r18
 e46:	80 0d       	add	r24, r0
 e48:	91 1d       	adc	r25, r1
 e4a:	a3 9f       	mul	r26, r19
 e4c:	90 0d       	add	r25, r0
 e4e:	b2 9f       	mul	r27, r18
 e50:	90 0d       	add	r25, r0
 e52:	11 24       	eor	r1, r1
 e54:	08 95       	ret

00000e56 <__udivmodsi4>:
 e56:	a1 e2       	ldi	r26, 0x21	; 33
 e58:	1a 2e       	mov	r1, r26
 e5a:	aa 1b       	sub	r26, r26
 e5c:	bb 1b       	sub	r27, r27
 e5e:	fd 01       	movw	r30, r26
 e60:	0d c0       	rjmp	.+26     	; 0xe7c <__udivmodsi4_ep>

00000e62 <__udivmodsi4_loop>:
 e62:	aa 1f       	adc	r26, r26
 e64:	bb 1f       	adc	r27, r27
 e66:	ee 1f       	adc	r30, r30
 e68:	ff 1f       	adc	r31, r31
 e6a:	a2 17       	cp	r26, r18
 e6c:	b3 07       	cpc	r27, r19
 e6e:	e4 07       	cpc	r30, r20
 e70:	f5 07       	cpc	r31, r21
 e72:	20 f0       	brcs	.+8      	; 0xe7c <__udivmodsi4_ep>
 e74:	a2 1b       	sub	r26, r18
 e76:	b3 0b       	sbc	r27, r19
 e78:	e4 0b       	sbc	r30, r20
 e7a:	f5 0b       	sbc	r31, r21

00000e7c <__udivmodsi4_ep>:
 e7c:	66 1f       	adc	r22, r22
 e7e:	77 1f       	adc	r23, r23
 e80:	88 1f       	adc	r24, r24
 e82:	99 1f       	adc	r25, r25
 e84:	1a 94       	dec	r1
 e86:	69 f7       	brne	.-38     	; 0xe62 <__udivmodsi4_loop>
 e88:	60 95       	com	r22
 e8a:	70 95       	com	r23
 e8c:	80 95       	com	r24
 e8e:	90 95       	com	r25
 e90:	9b 01       	movw	r18, r22
 e92:	ac 01       	movw	r20, r24
 e94:	bd 01       	movw	r22, r26
 e96:	cf 01       	movw	r24, r30
 e98:	08 95       	ret

00000e9a <__tablejump2__>:
 e9a:	ee 0f       	add	r30, r30
 e9c:	ff 1f       	adc	r31, r31

00000e9e <__tablejump__>:
 e9e:	05 90       	lpm	r0, Z+
 ea0:	f4 91       	lpm	r31, Z
 ea2:	e0 2d       	mov	r30, r0
 ea4:	09 94       	ijmp

00000ea6 <__umulhisi3>:
 ea6:	a2 9f       	mul	r26, r18
 ea8:	b0 01       	movw	r22, r0
 eaa:	b3 9f       	mul	r27, r19
 eac:	c0 01       	movw	r24, r0
 eae:	a3 9f       	mul	r26, r19
 eb0:	70 0d       	add	r23, r0
 eb2:	81 1d       	adc	r24, r1
 eb4:	11 24       	eor	r1, r1
 eb6:	91 1d       	adc	r25, r1
 eb8:	b2 9f       	mul	r27, r18
 eba:	70 0d       	add	r23, r0
 ebc:	81 1d       	adc	r24, r1
 ebe:	11 24       	eor	r1, r1
 ec0:	91 1d       	adc	r25, r1
 ec2:	08 95       	ret

00000ec4 <_exit>:
 ec4:	f8 94       	cli

00000ec6 <__stop_program>:
 ec6:	ff cf       	rjmp	.-2      	; 0xec6 <__stop_program>
