
sonic_code_boot:     Dateiformat elf32-avr

Sektionen:
Idx Name          Größe     VMA       LMA       Datei-Off Ausr.
  0 .data         00000010  00800100  0000684e  000008e2  2**0
                  CONTENTS, ALLOC, LOAD, DATA
  1 .text         0000084e  00006000  00006000  00000094  2**1
                  CONTENTS, ALLOC, LOAD, READONLY, CODE
  2 .bss          00000010  00800110  00800110  000008f2  2**0
                  ALLOC
  3 .stab         000006cc  00000000  00000000  000008f4  2**2
                  CONTENTS, READONLY, DEBUGGING
  4 .stabstr      00000054  00000000  00000000  00000fc0  2**0
                  CONTENTS, READONLY, DEBUGGING
  5 .comment      00000011  00000000  00000000  00001014  2**0
                  CONTENTS, READONLY

Disassembly of section .text:

00006000 <__vectors>:
    6000:	0c 94 4a 30 	jmp	0x6094	; 0x6094 <__ctors_end>
    6004:	0c 94 67 30 	jmp	0x60ce	; 0x60ce <__bad_interrupt>
    6008:	0c 94 67 30 	jmp	0x60ce	; 0x60ce <__bad_interrupt>
    600c:	0c 94 67 30 	jmp	0x60ce	; 0x60ce <__bad_interrupt>
    6010:	0c 94 67 30 	jmp	0x60ce	; 0x60ce <__bad_interrupt>
    6014:	0c 94 67 30 	jmp	0x60ce	; 0x60ce <__bad_interrupt>
    6018:	0c 94 67 30 	jmp	0x60ce	; 0x60ce <__bad_interrupt>
    601c:	0c 94 67 30 	jmp	0x60ce	; 0x60ce <__bad_interrupt>
    6020:	0c 94 67 30 	jmp	0x60ce	; 0x60ce <__bad_interrupt>
    6024:	0c 94 67 30 	jmp	0x60ce	; 0x60ce <__bad_interrupt>
    6028:	0c 94 67 30 	jmp	0x60ce	; 0x60ce <__bad_interrupt>
    602c:	0c 94 67 30 	jmp	0x60ce	; 0x60ce <__bad_interrupt>
    6030:	0c 94 67 30 	jmp	0x60ce	; 0x60ce <__bad_interrupt>
    6034:	0c 94 67 30 	jmp	0x60ce	; 0x60ce <__bad_interrupt>
    6038:	0c 94 67 30 	jmp	0x60ce	; 0x60ce <__bad_interrupt>
    603c:	0c 94 67 30 	jmp	0x60ce	; 0x60ce <__bad_interrupt>
    6040:	0c 94 67 30 	jmp	0x60ce	; 0x60ce <__bad_interrupt>
    6044:	0c 94 67 30 	jmp	0x60ce	; 0x60ce <__bad_interrupt>
    6048:	0c 94 67 30 	jmp	0x60ce	; 0x60ce <__bad_interrupt>
    604c:	0c 94 67 30 	jmp	0x60ce	; 0x60ce <__bad_interrupt>
    6050:	0c 94 67 30 	jmp	0x60ce	; 0x60ce <__bad_interrupt>
    6054:	0c 94 67 30 	jmp	0x60ce	; 0x60ce <__bad_interrupt>
    6058:	0c 94 67 30 	jmp	0x60ce	; 0x60ce <__bad_interrupt>
    605c:	0c 94 67 30 	jmp	0x60ce	; 0x60ce <__bad_interrupt>
    6060:	0c 94 67 30 	jmp	0x60ce	; 0x60ce <__bad_interrupt>
    6064:	0c 94 67 30 	jmp	0x60ce	; 0x60ce <__bad_interrupt>
    6068:	0c 94 67 30 	jmp	0x60ce	; 0x60ce <__bad_interrupt>
    606c:	0c 94 67 30 	jmp	0x60ce	; 0x60ce <__bad_interrupt>
    6070:	0c 94 67 30 	jmp	0x60ce	; 0x60ce <__bad_interrupt>
    6074:	0c 94 67 30 	jmp	0x60ce	; 0x60ce <__bad_interrupt>
    6078:	0c 94 67 30 	jmp	0x60ce	; 0x60ce <__bad_interrupt>
    607c:	0c 94 67 30 	jmp	0x60ce	; 0x60ce <__bad_interrupt>
    6080:	0c 94 67 30 	jmp	0x60ce	; 0x60ce <__bad_interrupt>
    6084:	0c 94 67 30 	jmp	0x60ce	; 0x60ce <__bad_interrupt>
    6088:	0c 94 67 30 	jmp	0x60ce	; 0x60ce <__bad_interrupt>
    608c:	0c 94 67 30 	jmp	0x60ce	; 0x60ce <__bad_interrupt>
    6090:	0c 94 67 30 	jmp	0x60ce	; 0x60ce <__bad_interrupt>

00006094 <__ctors_end>:
    6094:	11 24       	eor	r1, r1
    6096:	1f be       	out	0x3f, r1	; 63
    6098:	cf ef       	ldi	r28, 0xFF	; 255
    609a:	d8 e0       	ldi	r29, 0x08	; 8
    609c:	de bf       	out	0x3e, r29	; 62
    609e:	cd bf       	out	0x3d, r28	; 61

000060a0 <__do_copy_data>:
    60a0:	11 e0       	ldi	r17, 0x01	; 1
    60a2:	a0 e0       	ldi	r26, 0x00	; 0
    60a4:	b1 e0       	ldi	r27, 0x01	; 1
    60a6:	ee e4       	ldi	r30, 0x4E	; 78
    60a8:	f8 e6       	ldi	r31, 0x68	; 104
    60aa:	02 c0       	rjmp	.+4      	; 0x60b0 <__do_copy_data+0x10>
    60ac:	05 90       	lpm	r0, Z+
    60ae:	0d 92       	st	X+, r0
    60b0:	a0 31       	cpi	r26, 0x10	; 16
    60b2:	b1 07       	cpc	r27, r17
    60b4:	d9 f7       	brne	.-10     	; 0x60ac <__do_copy_data+0xc>

000060b6 <__do_clear_bss>:
    60b6:	11 e0       	ldi	r17, 0x01	; 1
    60b8:	a0 e1       	ldi	r26, 0x10	; 16
    60ba:	b1 e0       	ldi	r27, 0x01	; 1
    60bc:	01 c0       	rjmp	.+2      	; 0x60c0 <.do_clear_bss_start>

000060be <.do_clear_bss_loop>:
    60be:	1d 92       	st	X+, r1

000060c0 <.do_clear_bss_start>:
    60c0:	a0 32       	cpi	r26, 0x20	; 32
    60c2:	b1 07       	cpc	r27, r17
    60c4:	e1 f7       	brne	.-8      	; 0x60be <.do_clear_bss_loop>
    60c6:	0e 94 12 34 	call	0x6824	; 0x6824 <main>
    60ca:	0c 94 25 34 	jmp	0x684a	; 0x684a <_exit>

000060ce <__bad_interrupt>:
    60ce:	0c 94 00 30 	jmp	0x6000	; 0x6000 <__vectors>

000060d2 <PORT_Init>:
    60d2:	25 9a       	sbi	0x04, 5	; 4
    60d4:	54 9a       	sbi	0x0a, 4	; 10
    60d6:	6b 9a       	sbi	0x0d, 3	; 13
    60d8:	10 ba       	out	0x10, r1	; 16
    60da:	2d 98       	cbi	0x05, 5	; 5
    60dc:	5c 98       	cbi	0x0b, 4	; 11
    60de:	73 9a       	sbi	0x0e, 3	; 14
    60e0:	08 95       	ret

000060e2 <Clock_Init>:
    60e2:	f8 94       	cli
    60e4:	e1 e6       	ldi	r30, 0x61	; 97
    60e6:	f0 e0       	ldi	r31, 0x00	; 0
    60e8:	80 e8       	ldi	r24, 0x80	; 128
    60ea:	80 83       	st	Z, r24
    60ec:	10 82       	st	Z, r1
    60ee:	08 95       	ret

000060f0 <Watchdog_Init>:
    60f0:	e0 e6       	ldi	r30, 0x60	; 96
    60f2:	f0 e0       	ldi	r31, 0x00	; 0
    60f4:	80 81       	ld	r24, Z
    60f6:	88 61       	ori	r24, 0x18	; 24
    60f8:	80 83       	st	Z, r24
    60fa:	8e e0       	ldi	r24, 0x0E	; 14
    60fc:	80 83       	st	Z, r24
    60fe:	08 95       	ret

00006100 <Basic_Init>:
    6100:	0e 94 78 30 	call	0x60f0	; 0x60f0 <Watchdog_Init>
    6104:	0e 94 71 30 	call	0x60e2	; 0x60e2 <Clock_Init>
    6108:	85 e0       	ldi	r24, 0x05	; 5
    610a:	90 e0       	ldi	r25, 0x00	; 0
    610c:	0e 94 cf 33 	call	0x679e	; 0x679e <TC0_Wait_msWhile>
    6110:	0e 94 69 30 	call	0x60d2	; 0x60d2 <PORT_Init>
    6114:	0e 94 10 33 	call	0x6620	; 0x6620 <CAN_Init>
    6118:	85 e0       	ldi	r24, 0x05	; 5
    611a:	90 e0       	ldi	r25, 0x00	; 0
    611c:	0e 94 cf 33 	call	0x679e	; 0x679e <TC0_Wait_msWhile>
    6120:	0e 94 cb 33 	call	0x6796	; 0x6796 <TC0_Stop>
    6124:	81 e0       	ldi	r24, 0x01	; 1
    6126:	0c 94 a3 33 	jmp	0x6746	; 0x6746 <CAN_RXMOb_SetAddr>

0000612a <Boot_Program_App>:
    612a:	ff 92       	push	r15
    612c:	0f 93       	push	r16
    612e:	1f 93       	push	r17
    6130:	cf 93       	push	r28
    6132:	df 93       	push	r29
    6134:	64 e6       	ldi	r22, 0x64	; 100
    6136:	70 e0       	ldi	r23, 0x00	; 0
    6138:	82 e0       	ldi	r24, 0x02	; 2
    613a:	90 e0       	ldi	r25, 0x00	; 0
    613c:	0e 94 e6 33 	call	0x67cc	; 0x67cc <TC0_Wait_msQuery>
    6140:	10 e0       	ldi	r17, 0x00	; 0
    6142:	00 e0       	ldi	r16, 0x00	; 0
    6144:	a8 95       	wdr
    6146:	0e 94 80 33 	call	0x6700	; 0x6700 <CAN_RXMOB>
    614a:	ec 01       	movw	r28, r24
    614c:	88 81       	ld	r24, Y
    614e:	81 11       	cpse	r24, r1
    6150:	0c c0       	rjmp	.+24     	; 0x616a <Boot_Program_App+0x40>
    6152:	0e 94 80 33 	call	0x6700	; 0x6700 <CAN_RXMOB>
    6156:	ec 01       	movw	r28, r24
    6158:	64 e6       	ldi	r22, 0x64	; 100
    615a:	70 e0       	ldi	r23, 0x00	; 0
    615c:	81 e0       	ldi	r24, 0x01	; 1
    615e:	90 e0       	ldi	r25, 0x00	; 0
    6160:	0e 94 e6 33 	call	0x67cc	; 0x67cc <TC0_Wait_msQuery>
    6164:	88 23       	and	r24, r24
    6166:	91 f3       	breq	.-28     	; 0x614c <Boot_Program_App+0x22>
    6168:	31 c0       	rjmp	.+98     	; 0x61cc <Boot_Program_App+0xa2>
    616a:	88 30       	cpi	r24, 0x08	; 8
    616c:	e1 f4       	brne	.+56     	; 0x61a6 <Boot_Program_App+0x7c>
    616e:	23 96       	adiw	r28, 0x03	; 3
    6170:	f1 2c       	mov	r15, r1
    6172:	68 81       	ld	r22, Y
    6174:	70 e0       	ldi	r23, 0x00	; 0
    6176:	76 2f       	mov	r23, r22
    6178:	66 27       	eor	r22, r22
    617a:	fe 01       	movw	r30, r28
    617c:	31 97       	sbiw	r30, 0x01	; 1
    617e:	80 81       	ld	r24, Z
    6180:	68 2b       	or	r22, r24
    6182:	8f 2d       	mov	r24, r15
    6184:	80 0f       	add	r24, r16
    6186:	0e 94 94 31 	call	0x6328	; 0x6328 <Boot_LoadPageBuffer_Word>
    618a:	f3 94       	inc	r15
    618c:	22 96       	adiw	r28, 0x02	; 2
    618e:	84 e0       	ldi	r24, 0x04	; 4
    6190:	f8 12       	cpse	r15, r24
    6192:	ef cf       	rjmp	.-34     	; 0x6172 <Boot_Program_App+0x48>
    6194:	64 e6       	ldi	r22, 0x64	; 100
    6196:	70 e0       	ldi	r23, 0x00	; 0
    6198:	82 e0       	ldi	r24, 0x02	; 2
    619a:	90 e0       	ldi	r25, 0x00	; 0
    619c:	0e 94 e6 33 	call	0x67cc	; 0x67cc <TC0_Wait_msQuery>
    61a0:	0e 94 21 32 	call	0x6442	; 0x6442 <CAN_TXMOB_ACK_Program>
    61a4:	09 c0       	rjmp	.+18     	; 0x61b8 <Boot_Program_App+0x8e>
    61a6:	81 30       	cpi	r24, 0x01	; 1
    61a8:	39 f4       	brne	.+14     	; 0x61b8 <Boot_Program_App+0x8e>
    61aa:	8a 81       	ldd	r24, Y+2	; 0x02
    61ac:	8e 30       	cpi	r24, 0x0E	; 14
    61ae:	21 f4       	brne	.+8      	; 0x61b8 <Boot_Program_App+0x8e>
    61b0:	81 2f       	mov	r24, r17
    61b2:	0e 94 c1 31 	call	0x6382	; 0x6382 <Boot_WritePage>
    61b6:	0a c0       	rjmp	.+20     	; 0x61cc <Boot_Program_App+0xa2>
    61b8:	0c 5f       	subi	r16, 0xFC	; 252
    61ba:	00 38       	cpi	r16, 0x80	; 128
    61bc:	19 f6       	brne	.-122    	; 0x6144 <Boot_Program_App+0x1a>
    61be:	81 2f       	mov	r24, r17
    61c0:	0e 94 c1 31 	call	0x6382	; 0x6382 <Boot_WritePage>
    61c4:	1f 5f       	subi	r17, 0xFF	; 255
    61c6:	10 34       	cpi	r17, 0x40	; 64
    61c8:	09 f0       	breq	.+2      	; 0x61cc <Boot_Program_App+0xa2>
    61ca:	bb cf       	rjmp	.-138    	; 0x6142 <Boot_Program_App+0x18>
    61cc:	8f e0       	ldi	r24, 0x0F	; 15
    61ce:	90 e0       	ldi	r25, 0x00	; 0
    61d0:	df 91       	pop	r29
    61d2:	cf 91       	pop	r28
    61d4:	1f 91       	pop	r17
    61d6:	0f 91       	pop	r16
    61d8:	ff 90       	pop	r15
    61da:	08 95       	ret

000061dc <Boot_Write4Words2CAN>:
    61dc:	cf 92       	push	r12
    61de:	df 92       	push	r13
    61e0:	ef 92       	push	r14
    61e2:	ff 92       	push	r15
    61e4:	0f 93       	push	r16
    61e6:	1f 93       	push	r17
    61e8:	cf 93       	push	r28
    61ea:	df 93       	push	r29
    61ec:	cd b7       	in	r28, 0x3d	; 61
    61ee:	de b7       	in	r29, 0x3e	; 62
    61f0:	2a 97       	sbiw	r28, 0x0a	; 10
    61f2:	0f b6       	in	r0, 0x3f	; 63
    61f4:	f8 94       	cli
    61f6:	de bf       	out	0x3e, r29	; 62
    61f8:	0f be       	out	0x3f, r0	; 63
    61fa:	cd bf       	out	0x3d, r28	; 61
    61fc:	e8 2e       	mov	r14, r24
    61fe:	c6 2e       	mov	r12, r22
    6200:	8a e0       	ldi	r24, 0x0A	; 10
    6202:	e0 e0       	ldi	r30, 0x00	; 0
    6204:	f1 e0       	ldi	r31, 0x01	; 1
    6206:	de 01       	movw	r26, r28
    6208:	11 96       	adiw	r26, 0x01	; 1
    620a:	01 90       	ld	r0, Z+
    620c:	0d 92       	st	X+, r0
    620e:	8a 95       	dec	r24
    6210:	e1 f7       	brne	.-8      	; 0x620a <Boot_Write4Words2CAN+0x2e>
    6212:	8e 01       	movw	r16, r28
    6214:	0c 5f       	subi	r16, 0xFC	; 252
    6216:	1f 4f       	sbci	r17, 0xFF	; 255
    6218:	f1 2c       	mov	r15, r1
    621a:	df 2c       	mov	r13, r15
    621c:	dc 0c       	add	r13, r12
    621e:	40 e0       	ldi	r20, 0x00	; 0
    6220:	6d 2d       	mov	r22, r13
    6222:	8e 2d       	mov	r24, r14
    6224:	0e 94 85 31 	call	0x630a	; 0x630a <Boot_Read>
    6228:	f8 01       	movw	r30, r16
    622a:	31 97       	sbiw	r30, 0x01	; 1
    622c:	80 83       	st	Z, r24
    622e:	41 e0       	ldi	r20, 0x01	; 1
    6230:	6d 2d       	mov	r22, r13
    6232:	8e 2d       	mov	r24, r14
    6234:	0e 94 85 31 	call	0x630a	; 0x630a <Boot_Read>
    6238:	f8 01       	movw	r30, r16
    623a:	80 83       	st	Z, r24
    623c:	f3 94       	inc	r15
    623e:	0e 5f       	subi	r16, 0xFE	; 254
    6240:	1f 4f       	sbci	r17, 0xFF	; 255
    6242:	f4 e0       	ldi	r31, 0x04	; 4
    6244:	ff 12       	cpse	r15, r31
    6246:	e9 cf       	rjmp	.-46     	; 0x621a <Boot_Write4Words2CAN+0x3e>
    6248:	ce 01       	movw	r24, r28
    624a:	01 96       	adiw	r24, 0x01	; 1
    624c:	0e 94 5b 33 	call	0x66b6	; 0x66b6 <CAN_TXMOB>
    6250:	2a 96       	adiw	r28, 0x0a	; 10
    6252:	0f b6       	in	r0, 0x3f	; 63
    6254:	f8 94       	cli
    6256:	de bf       	out	0x3e, r29	; 62
    6258:	0f be       	out	0x3f, r0	; 63
    625a:	cd bf       	out	0x3d, r28	; 61
    625c:	df 91       	pop	r29
    625e:	cf 91       	pop	r28
    6260:	1f 91       	pop	r17
    6262:	0f 91       	pop	r16
    6264:	ff 90       	pop	r15
    6266:	ef 90       	pop	r14
    6268:	df 90       	pop	r13
    626a:	cf 90       	pop	r12
    626c:	08 95       	ret

0000626e <Boot_Read_App>:
    626e:	0f 93       	push	r16
    6270:	1f 93       	push	r17
    6272:	cf 93       	push	r28
    6274:	df 93       	push	r29
    6276:	64 e6       	ldi	r22, 0x64	; 100
    6278:	70 e0       	ldi	r23, 0x00	; 0
    627a:	82 e0       	ldi	r24, 0x02	; 2
    627c:	90 e0       	ldi	r25, 0x00	; 0
    627e:	0e 94 e6 33 	call	0x67cc	; 0x67cc <TC0_Wait_msQuery>
    6282:	00 e0       	ldi	r16, 0x00	; 0
    6284:	10 e0       	ldi	r17, 0x00	; 0
    6286:	0e 94 80 33 	call	0x6700	; 0x6700 <CAN_RXMOB>
    628a:	ec 01       	movw	r28, r24
    628c:	88 81       	ld	r24, Y
    628e:	81 11       	cpse	r24, r1
    6290:	0c c0       	rjmp	.+24     	; 0x62aa <Boot_Read_App+0x3c>
    6292:	0e 94 80 33 	call	0x6700	; 0x6700 <CAN_RXMOB>
    6296:	ec 01       	movw	r28, r24
    6298:	64 e6       	ldi	r22, 0x64	; 100
    629a:	70 e0       	ldi	r23, 0x00	; 0
    629c:	81 e0       	ldi	r24, 0x01	; 1
    629e:	90 e0       	ldi	r25, 0x00	; 0
    62a0:	0e 94 e6 33 	call	0x67cc	; 0x67cc <TC0_Wait_msQuery>
    62a4:	88 23       	and	r24, r24
    62a6:	91 f3       	breq	.-28     	; 0x628c <Boot_Read_App+0x1e>
    62a8:	17 c0       	rjmp	.+46     	; 0x62d8 <Boot_Read_App+0x6a>
    62aa:	8a 81       	ldd	r24, Y+2	; 0x02
    62ac:	83 31       	cpi	r24, 0x13	; 19
    62ae:	61 f4       	brne	.+24     	; 0x62c8 <Boot_Read_App+0x5a>
    62b0:	61 2f       	mov	r22, r17
    62b2:	80 2f       	mov	r24, r16
    62b4:	0e 94 ee 30 	call	0x61dc	; 0x61dc <Boot_Write4Words2CAN>
    62b8:	a8 95       	wdr
    62ba:	64 e6       	ldi	r22, 0x64	; 100
    62bc:	70 e0       	ldi	r23, 0x00	; 0
    62be:	82 e0       	ldi	r24, 0x02	; 2
    62c0:	90 e0       	ldi	r25, 0x00	; 0
    62c2:	0e 94 e6 33 	call	0x67cc	; 0x67cc <TC0_Wait_msQuery>
    62c6:	02 c0       	rjmp	.+4      	; 0x62cc <Boot_Read_App+0x5e>
    62c8:	8e 30       	cpi	r24, 0x0E	; 14
    62ca:	31 f0       	breq	.+12     	; 0x62d8 <Boot_Read_App+0x6a>
    62cc:	1c 5f       	subi	r17, 0xFC	; 252
    62ce:	10 38       	cpi	r17, 0x80	; 128
    62d0:	d1 f6       	brne	.-76     	; 0x6286 <Boot_Read_App+0x18>
    62d2:	0f 5f       	subi	r16, 0xFF	; 255
    62d4:	00 34       	cpi	r16, 0x40	; 64
    62d6:	b1 f6       	brne	.-84     	; 0x6284 <Boot_Read_App+0x16>
    62d8:	8f e0       	ldi	r24, 0x0F	; 15
    62da:	90 e0       	ldi	r25, 0x00	; 0
    62dc:	df 91       	pop	r29
    62de:	cf 91       	pop	r28
    62e0:	1f 91       	pop	r17
    62e2:	0f 91       	pop	r16
    62e4:	08 95       	ret

000062e6 <Boot_Jump2App>:
    62e6:	0c 94 00 00 	jmp	0	; 0x0 <__heap_end>
    62ea:	08 95       	ret

000062ec <Boot_Jump2Bootloader>:
    62ec:	0c 94 00 18 	jmp	0x3000	; 0x3000 <__stack+0x2701>
    62f0:	08 95       	ret

000062f2 <Boot_ReadR0>:
    62f2:	80 2d       	mov	r24, r0
    62f4:	08 95       	ret

000062f6 <Boot_WriteR0R1>:
    62f6:	0c 01       	movw	r0, r24
    62f8:	08 95       	ret

000062fa <Boot_ZPointer>:
    62fa:	70 e0       	ldi	r23, 0x00	; 0
    62fc:	66 0f       	add	r22, r22
    62fe:	77 1f       	adc	r23, r23
    6300:	78 2b       	or	r23, r24
    6302:	46 2b       	or	r20, r22
    6304:	e4 2f       	mov	r30, r20
    6306:	f7 2f       	mov	r31, r23
    6308:	08 95       	ret

0000630a <Boot_Read>:
    630a:	0f 92       	push	r0
    630c:	1f 92       	push	r1
    630e:	ef 93       	push	r30
    6310:	ff 93       	push	r31
    6312:	0e 94 7d 31 	call	0x62fa	; 0x62fa <Boot_ZPointer>
    6316:	81 e0       	ldi	r24, 0x01	; 1
    6318:	87 bf       	out	0x37, r24	; 55
    631a:	c8 95       	lpm
    631c:	80 2d       	mov	r24, r0
    631e:	ff 91       	pop	r31
    6320:	ef 91       	pop	r30
    6322:	1f 90       	pop	r1
    6324:	0f 90       	pop	r0
    6326:	08 95       	ret

00006328 <Boot_LoadPageBuffer_Word>:
    6328:	cf 93       	push	r28
    632a:	df 93       	push	r29
    632c:	eb 01       	movw	r28, r22
    632e:	0f 92       	push	r0
    6330:	1f 92       	push	r1
    6332:	ef 93       	push	r30
    6334:	ff 93       	push	r31
    6336:	40 e0       	ldi	r20, 0x00	; 0
    6338:	68 2f       	mov	r22, r24
    633a:	80 e0       	ldi	r24, 0x00	; 0
    633c:	0e 94 7d 31 	call	0x62fa	; 0x62fa <Boot_ZPointer>
    6340:	0e 01       	movw	r0, r28
    6342:	81 e0       	ldi	r24, 0x01	; 1
    6344:	87 bf       	out	0x37, r24	; 55
    6346:	e8 95       	spm
    6348:	07 b6       	in	r0, 0x37	; 55
    634a:	00 fc       	sbrc	r0, 0
    634c:	fd cf       	rjmp	.-6      	; 0x6348 <Boot_LoadPageBuffer_Word+0x20>
    634e:	ff 91       	pop	r31
    6350:	ef 91       	pop	r30
    6352:	1f 90       	pop	r1
    6354:	0f 90       	pop	r0
    6356:	df 91       	pop	r29
    6358:	cf 91       	pop	r28
    635a:	08 95       	ret

0000635c <Boot_ErasePage>:
    635c:	0f 92       	push	r0
    635e:	1f 92       	push	r1
    6360:	ef 93       	push	r30
    6362:	ff 93       	push	r31
    6364:	40 e0       	ldi	r20, 0x00	; 0
    6366:	60 e0       	ldi	r22, 0x00	; 0
    6368:	0e 94 7d 31 	call	0x62fa	; 0x62fa <Boot_ZPointer>
    636c:	83 e0       	ldi	r24, 0x03	; 3
    636e:	87 bf       	out	0x37, r24	; 55
    6370:	e8 95       	spm
    6372:	07 b6       	in	r0, 0x37	; 55
    6374:	00 fc       	sbrc	r0, 0
    6376:	fd cf       	rjmp	.-6      	; 0x6372 <Boot_ErasePage+0x16>
    6378:	ff 91       	pop	r31
    637a:	ef 91       	pop	r30
    637c:	1f 90       	pop	r1
    637e:	0f 90       	pop	r0
    6380:	08 95       	ret

00006382 <Boot_WritePage>:
    6382:	cf 93       	push	r28
    6384:	c8 2f       	mov	r28, r24
    6386:	0f 92       	push	r0
    6388:	1f 92       	push	r1
    638a:	ef 93       	push	r30
    638c:	ff 93       	push	r31
    638e:	40 e0       	ldi	r20, 0x00	; 0
    6390:	60 e0       	ldi	r22, 0x00	; 0
    6392:	0e 94 7d 31 	call	0x62fa	; 0x62fa <Boot_ZPointer>
    6396:	83 e0       	ldi	r24, 0x03	; 3
    6398:	87 bf       	out	0x37, r24	; 55
    639a:	e8 95       	spm
    639c:	07 b6       	in	r0, 0x37	; 55
    639e:	00 fc       	sbrc	r0, 0
    63a0:	fd cf       	rjmp	.-6      	; 0x639c <Boot_WritePage+0x1a>
    63a2:	40 e0       	ldi	r20, 0x00	; 0
    63a4:	60 e0       	ldi	r22, 0x00	; 0
    63a6:	8c 2f       	mov	r24, r28
    63a8:	0e 94 7d 31 	call	0x62fa	; 0x62fa <Boot_ZPointer>
    63ac:	85 e0       	ldi	r24, 0x05	; 5
    63ae:	87 bf       	out	0x37, r24	; 55
    63b0:	e8 95       	spm
    63b2:	07 b6       	in	r0, 0x37	; 55
    63b4:	00 fc       	sbrc	r0, 0
    63b6:	fd cf       	rjmp	.-6      	; 0x63b2 <Boot_WritePage+0x30>
    63b8:	ff 91       	pop	r31
    63ba:	ef 91       	pop	r30
    63bc:	1f 90       	pop	r1
    63be:	0f 90       	pop	r0
    63c0:	cf 91       	pop	r28
    63c2:	08 95       	ret

000063c4 <CAN_TXMOB_Working>:
    63c4:	cf 93       	push	r28
    63c6:	df 93       	push	r29
    63c8:	00 d0       	rcall	.+0      	; 0x63ca <CAN_TXMOB_Working+0x6>
    63ca:	1f 92       	push	r1
    63cc:	cd b7       	in	r28, 0x3d	; 61
    63ce:	de b7       	in	r29, 0x3e	; 62
    63d0:	81 e0       	ldi	r24, 0x01	; 1
    63d2:	89 83       	std	Y+1, r24	; 0x01
    63d4:	1a 82       	std	Y+2, r1	; 0x02
    63d6:	8d e0       	ldi	r24, 0x0D	; 13
    63d8:	8b 83       	std	Y+3, r24	; 0x03
    63da:	ce 01       	movw	r24, r28
    63dc:	01 96       	adiw	r24, 0x01	; 1
    63de:	0e 94 5b 33 	call	0x66b6	; 0x66b6 <CAN_TXMOB>
    63e2:	0f 90       	pop	r0
    63e4:	0f 90       	pop	r0
    63e6:	0f 90       	pop	r0
    63e8:	df 91       	pop	r29
    63ea:	cf 91       	pop	r28
    63ec:	08 95       	ret

000063ee <CAN_TXMOB_ACK>:
    63ee:	cf 93       	push	r28
    63f0:	df 93       	push	r29
    63f2:	00 d0       	rcall	.+0      	; 0x63f4 <CAN_TXMOB_ACK+0x6>
    63f4:	1f 92       	push	r1
    63f6:	cd b7       	in	r28, 0x3d	; 61
    63f8:	de b7       	in	r29, 0x3e	; 62
    63fa:	81 e0       	ldi	r24, 0x01	; 1
    63fc:	89 83       	std	Y+1, r24	; 0x01
    63fe:	1a 82       	std	Y+2, r1	; 0x02
    6400:	8e e0       	ldi	r24, 0x0E	; 14
    6402:	8b 83       	std	Y+3, r24	; 0x03
    6404:	ce 01       	movw	r24, r28
    6406:	01 96       	adiw	r24, 0x01	; 1
    6408:	0e 94 5b 33 	call	0x66b6	; 0x66b6 <CAN_TXMOB>
    640c:	0f 90       	pop	r0
    640e:	0f 90       	pop	r0
    6410:	0f 90       	pop	r0
    6412:	df 91       	pop	r29
    6414:	cf 91       	pop	r28
    6416:	08 95       	ret

00006418 <CAN_TXMOB_ACK_Boot>:
    6418:	cf 93       	push	r28
    641a:	df 93       	push	r29
    641c:	00 d0       	rcall	.+0      	; 0x641e <CAN_TXMOB_ACK_Boot+0x6>
    641e:	1f 92       	push	r1
    6420:	cd b7       	in	r28, 0x3d	; 61
    6422:	de b7       	in	r29, 0x3e	; 62
    6424:	81 e0       	ldi	r24, 0x01	; 1
    6426:	89 83       	std	Y+1, r24	; 0x01
    6428:	1a 82       	std	Y+2, r1	; 0x02
    642a:	80 e1       	ldi	r24, 0x10	; 16
    642c:	8b 83       	std	Y+3, r24	; 0x03
    642e:	ce 01       	movw	r24, r28
    6430:	01 96       	adiw	r24, 0x01	; 1
    6432:	0e 94 5b 33 	call	0x66b6	; 0x66b6 <CAN_TXMOB>
    6436:	0f 90       	pop	r0
    6438:	0f 90       	pop	r0
    643a:	0f 90       	pop	r0
    643c:	df 91       	pop	r29
    643e:	cf 91       	pop	r28
    6440:	08 95       	ret

00006442 <CAN_TXMOB_ACK_Program>:
    6442:	cf 93       	push	r28
    6444:	df 93       	push	r29
    6446:	00 d0       	rcall	.+0      	; 0x6448 <CAN_TXMOB_ACK_Program+0x6>
    6448:	1f 92       	push	r1
    644a:	cd b7       	in	r28, 0x3d	; 61
    644c:	de b7       	in	r29, 0x3e	; 62
    644e:	81 e0       	ldi	r24, 0x01	; 1
    6450:	89 83       	std	Y+1, r24	; 0x01
    6452:	1a 82       	std	Y+2, r1	; 0x02
    6454:	82 e1       	ldi	r24, 0x12	; 18
    6456:	8b 83       	std	Y+3, r24	; 0x03
    6458:	ce 01       	movw	r24, r28
    645a:	01 96       	adiw	r24, 0x01	; 1
    645c:	0e 94 5b 33 	call	0x66b6	; 0x66b6 <CAN_TXMOB>
    6460:	0f 90       	pop	r0
    6462:	0f 90       	pop	r0
    6464:	0f 90       	pop	r0
    6466:	df 91       	pop	r29
    6468:	cf 91       	pop	r28
    646a:	08 95       	ret

0000646c <CAN_TXMOB_ACK_ReadProgram>:
    646c:	cf 93       	push	r28
    646e:	df 93       	push	r29
    6470:	00 d0       	rcall	.+0      	; 0x6472 <CAN_TXMOB_ACK_ReadProgram+0x6>
    6472:	1f 92       	push	r1
    6474:	cd b7       	in	r28, 0x3d	; 61
    6476:	de b7       	in	r29, 0x3e	; 62
    6478:	81 e0       	ldi	r24, 0x01	; 1
    647a:	89 83       	std	Y+1, r24	; 0x01
    647c:	1a 82       	std	Y+2, r1	; 0x02
    647e:	83 e1       	ldi	r24, 0x13	; 19
    6480:	8b 83       	std	Y+3, r24	; 0x03
    6482:	ce 01       	movw	r24, r28
    6484:	01 96       	adiw	r24, 0x01	; 1
    6486:	0e 94 5b 33 	call	0x66b6	; 0x66b6 <CAN_TXMOB>
    648a:	0f 90       	pop	r0
    648c:	0f 90       	pop	r0
    648e:	0f 90       	pop	r0
    6490:	df 91       	pop	r29
    6492:	cf 91       	pop	r28
    6494:	08 95       	ret

00006496 <CAN_TXMOB_sVersion>:
    6496:	cf 93       	push	r28
    6498:	df 93       	push	r29
    649a:	00 d0       	rcall	.+0      	; 0x649c <CAN_TXMOB_sVersion+0x6>
    649c:	00 d0       	rcall	.+0      	; 0x649e <CAN_TXMOB_sVersion+0x8>
    649e:	1f 92       	push	r1
    64a0:	cd b7       	in	r28, 0x3d	; 61
    64a2:	de b7       	in	r29, 0x3e	; 62
    64a4:	85 e0       	ldi	r24, 0x05	; 5
    64a6:	ea e0       	ldi	r30, 0x0A	; 10
    64a8:	f1 e0       	ldi	r31, 0x01	; 1
    64aa:	de 01       	movw	r26, r28
    64ac:	11 96       	adiw	r26, 0x01	; 1
    64ae:	01 90       	ld	r0, Z+
    64b0:	0d 92       	st	X+, r0
    64b2:	8a 95       	dec	r24
    64b4:	e1 f7       	brne	.-8      	; 0x64ae <CAN_TXMOB_sVersion+0x18>
    64b6:	ce 01       	movw	r24, r28
    64b8:	01 96       	adiw	r24, 0x01	; 1
    64ba:	0e 94 5b 33 	call	0x66b6	; 0x66b6 <CAN_TXMOB>
    64be:	0f 90       	pop	r0
    64c0:	0f 90       	pop	r0
    64c2:	0f 90       	pop	r0
    64c4:	0f 90       	pop	r0
    64c6:	0f 90       	pop	r0
    64c8:	df 91       	pop	r29
    64ca:	cf 91       	pop	r28
    64cc:	08 95       	ret

000064ce <CAN_TXMOB_USSREG>:
    64ce:	cf 93       	push	r28
    64d0:	df 93       	push	r29
    64d2:	00 d0       	rcall	.+0      	; 0x64d4 <CAN_TXMOB_USSREG+0x6>
    64d4:	00 d0       	rcall	.+0      	; 0x64d6 <CAN_TXMOB_USSREG+0x8>
    64d6:	cd b7       	in	r28, 0x3d	; 61
    64d8:	de b7       	in	r29, 0x3e	; 62
    64da:	82 e0       	ldi	r24, 0x02	; 2
    64dc:	89 83       	std	Y+1, r24	; 0x01
    64de:	1a 82       	std	Y+2, r1	; 0x02
    64e0:	86 e0       	ldi	r24, 0x06	; 6
    64e2:	8b 83       	std	Y+3, r24	; 0x03
    64e4:	80 91 10 01 	lds	r24, 0x0110
    64e8:	8c 83       	std	Y+4, r24	; 0x04
    64ea:	ce 01       	movw	r24, r28
    64ec:	01 96       	adiw	r24, 0x01	; 1
    64ee:	0e 94 5b 33 	call	0x66b6	; 0x66b6 <CAN_TXMOB>
    64f2:	0f 90       	pop	r0
    64f4:	0f 90       	pop	r0
    64f6:	0f 90       	pop	r0
    64f8:	0f 90       	pop	r0
    64fa:	df 91       	pop	r29
    64fc:	cf 91       	pop	r28
    64fe:	08 95       	ret

00006500 <CAN_RxParser>:
    6500:	cf 93       	push	r28
    6502:	df 93       	push	r29
    6504:	ec 01       	movw	r28, r24
    6506:	0e 94 80 33 	call	0x6700	; 0x6700 <CAN_RXMOB>
    650a:	fc 01       	movw	r30, r24
    650c:	80 81       	ld	r24, Z
    650e:	88 23       	and	r24, r24
    6510:	49 f1       	breq	.+82     	; 0x6564 <CAN_RxParser+0x64>
    6512:	81 81       	ldd	r24, Z+1	; 0x01
    6514:	88 23       	and	r24, r24
    6516:	31 f1       	breq	.+76     	; 0x6564 <CAN_RxParser+0x64>
    6518:	82 81       	ldd	r24, Z+2	; 0x02
    651a:	81 31       	cpi	r24, 0x11	; 17
    651c:	69 f0       	breq	.+26     	; 0x6538 <CAN_RxParser+0x38>
    651e:	38 f4       	brcc	.+14     	; 0x652e <CAN_RxParser+0x2e>
    6520:	8c 30       	cpi	r24, 0x0C	; 12
    6522:	f1 f0       	breq	.+60     	; 0x6560 <CAN_RxParser+0x60>
    6524:	80 31       	cpi	r24, 0x10	; 16
    6526:	f1 f4       	brne	.+60     	; 0x6564 <CAN_RxParser+0x64>
    6528:	0e 94 0c 32 	call	0x6418	; 0x6418 <CAN_TXMOB_ACK_Boot>
    652c:	1b c0       	rjmp	.+54     	; 0x6564 <CAN_RxParser+0x64>
    652e:	82 31       	cpi	r24, 0x12	; 18
    6530:	41 f0       	breq	.+16     	; 0x6542 <CAN_RxParser+0x42>
    6532:	83 31       	cpi	r24, 0x13	; 19
    6534:	69 f0       	breq	.+26     	; 0x6550 <CAN_RxParser+0x50>
    6536:	16 c0       	rjmp	.+44     	; 0x6564 <CAN_RxParser+0x64>
    6538:	0e 94 f7 31 	call	0x63ee	; 0x63ee <CAN_TXMOB_ACK>
    653c:	0e 94 73 31 	call	0x62e6	; 0x62e6 <Boot_Jump2App>
    6540:	11 c0       	rjmp	.+34     	; 0x6564 <CAN_RxParser+0x64>
    6542:	cf 30       	cpi	r28, 0x0F	; 15
    6544:	d1 05       	cpc	r29, r1
    6546:	71 f4       	brne	.+28     	; 0x6564 <CAN_RxParser+0x64>
    6548:	0e 94 21 32 	call	0x6442	; 0x6442 <CAN_TXMOB_ACK_Program>
    654c:	82 e1       	ldi	r24, 0x12	; 18
    654e:	06 c0       	rjmp	.+12     	; 0x655c <CAN_RxParser+0x5c>
    6550:	cf 30       	cpi	r28, 0x0F	; 15
    6552:	d1 05       	cpc	r29, r1
    6554:	39 f4       	brne	.+14     	; 0x6564 <CAN_RxParser+0x64>
    6556:	0e 94 36 32 	call	0x646c	; 0x646c <CAN_TXMOB_ACK_ReadProgram>
    655a:	83 e1       	ldi	r24, 0x13	; 19
    655c:	90 e0       	ldi	r25, 0x00	; 0
    655e:	03 c0       	rjmp	.+6      	; 0x6566 <CAN_RxParser+0x66>
    6560:	0e 94 4b 32 	call	0x6496	; 0x6496 <CAN_TXMOB_sVersion>
    6564:	ce 01       	movw	r24, r28
    6566:	df 91       	pop	r29
    6568:	cf 91       	pop	r28
    656a:	08 95       	ret

0000656c <CAN_USSREG>:
    656c:	85 30       	cpi	r24, 0x05	; 5
    656e:	91 05       	cpc	r25, r1
    6570:	e1 f0       	breq	.+56     	; 0x65aa <CAN_USSREG+0x3e>
    6572:	60 f4       	brcc	.+24     	; 0x658c <CAN_USSREG+0x20>
    6574:	82 30       	cpi	r24, 0x02	; 2
    6576:	91 05       	cpc	r25, r1
    6578:	a9 f0       	breq	.+42     	; 0x65a4 <CAN_USSREG+0x38>
    657a:	03 97       	sbiw	r24, 0x03	; 3
    657c:	d9 f4       	brne	.+54     	; 0x65b4 <CAN_USSREG+0x48>
    657e:	60 95       	com	r22
    6580:	80 91 10 01 	lds	r24, 0x0110
    6584:	86 23       	and	r24, r22
    6586:	80 93 10 01 	sts	0x0110, r24
    658a:	14 c0       	rjmp	.+40     	; 0x65b4 <CAN_USSREG+0x48>
    658c:	88 31       	cpi	r24, 0x18	; 24
    658e:	91 05       	cpc	r25, r1
    6590:	49 f0       	breq	.+18     	; 0x65a4 <CAN_USSREG+0x38>
    6592:	20 91 10 01 	lds	r18, 0x0110
    6596:	8a 31       	cpi	r24, 0x1A	; 26
    6598:	91 05       	cpc	r25, r1
    659a:	51 f0       	breq	.+20     	; 0x65b0 <CAN_USSREG+0x44>
    659c:	0f 97       	sbiw	r24, 0x0f	; 15
    659e:	51 f4       	brne	.+20     	; 0x65b4 <CAN_USSREG+0x48>
    65a0:	62 2b       	or	r22, r18
    65a2:	03 c0       	rjmp	.+6      	; 0x65aa <CAN_USSREG+0x3e>
    65a4:	10 92 10 01 	sts	0x0110, r1
    65a8:	05 c0       	rjmp	.+10     	; 0x65b4 <CAN_USSREG+0x48>
    65aa:	60 93 10 01 	sts	0x0110, r22
    65ae:	02 c0       	rjmp	.+4      	; 0x65b4 <CAN_USSREG+0x48>
    65b0:	82 2f       	mov	r24, r18
    65b2:	08 95       	ret
    65b4:	80 91 10 01 	lds	r24, 0x0110
    65b8:	08 95       	ret

000065ba <CAN_RXMOb_Init>:
    65ba:	90 e2       	ldi	r25, 0x20	; 32
    65bc:	90 93 ed 00 	sts	0x00ED, r25
    65c0:	ef ee       	ldi	r30, 0xEF	; 239
    65c2:	f0 e0       	ldi	r31, 0x00	; 0
    65c4:	80 81       	ld	r24, Z
    65c6:	81 60       	ori	r24, 0x01	; 1
    65c8:	80 83       	st	Z, r24
    65ca:	10 92 f0 00 	sts	0x00F0, r1
    65ce:	10 92 f1 00 	sts	0x00F1, r1
    65d2:	90 93 f2 00 	sts	0x00F2, r25
    65d6:	10 92 f3 00 	sts	0x00F3, r1
    65da:	10 92 f4 00 	sts	0x00F4, r1
    65de:	10 92 f5 00 	sts	0x00F5, r1
    65e2:	10 92 f6 00 	sts	0x00F6, r1
    65e6:	10 92 f7 00 	sts	0x00F7, r1
    65ea:	80 81       	ld	r24, Z
    65ec:	80 68       	ori	r24, 0x80	; 128
    65ee:	80 83       	st	Z, r24
    65f0:	08 95       	ret

000065f2 <CAN_ClearMOb>:
    65f2:	80 e0       	ldi	r24, 0x00	; 0
    65f4:	90 e0       	ldi	r25, 0x00	; 0
    65f6:	9c 01       	movw	r18, r24
    65f8:	44 e0       	ldi	r20, 0x04	; 4
    65fa:	22 0f       	add	r18, r18
    65fc:	33 1f       	adc	r19, r19
    65fe:	4a 95       	dec	r20
    6600:	e1 f7       	brne	.-8      	; 0x65fa <CAN_ClearMOb+0x8>
    6602:	20 93 ed 00 	sts	0x00ED, r18
    6606:	20 91 ee 00 	lds	r18, 0x00EE
    660a:	10 92 ee 00 	sts	0x00EE, r1
    660e:	10 92 ef 00 	sts	0x00EF, r1
    6612:	10 92 fa 00 	sts	0x00FA, r1
    6616:	01 96       	adiw	r24, 0x01	; 1
    6618:	8e 30       	cpi	r24, 0x0E	; 14
    661a:	91 05       	cpc	r25, r1
    661c:	61 f7       	brne	.-40     	; 0x65f6 <CAN_ClearMOb+0x4>
    661e:	08 95       	ret

00006620 <CAN_Init>:
    6620:	55 9a       	sbi	0x0a, 5	; 10
    6622:	56 98       	cbi	0x0a, 6	; 10
    6624:	81 e0       	ldi	r24, 0x01	; 1
    6626:	80 93 d8 00 	sts	0x00D8, r24
    662a:	8f ef       	ldi	r24, 0xFF	; 255
    662c:	80 93 da 00 	sts	0x00DA, r24
    6630:	10 92 db 00 	sts	0x00DB, r1
    6634:	10 92 df 00 	sts	0x00DF, r1
    6638:	10 92 de 00 	sts	0x00DE, r1
    663c:	0e 94 f9 32 	call	0x65f2	; 0x65f2 <CAN_ClearMOb>
    6640:	82 e1       	ldi	r24, 0x12	; 18
    6642:	80 93 e2 00 	sts	0x00E2, r24
    6646:	8c e0       	ldi	r24, 0x0C	; 12
    6648:	80 93 e3 00 	sts	0x00E3, r24
    664c:	87 e3       	ldi	r24, 0x37	; 55
    664e:	80 93 e4 00 	sts	0x00E4, r24
    6652:	10 92 e5 00 	sts	0x00E5, r1
    6656:	82 e0       	ldi	r24, 0x02	; 2
    6658:	80 93 d8 00 	sts	0x00D8, r24
    665c:	80 91 d9 00 	lds	r24, 0x00D9
    6660:	82 ff       	sbrs	r24, 2
    6662:	fc cf       	rjmp	.-8      	; 0x665c <CAN_Init+0x3c>
    6664:	0e 94 dd 32 	call	0x65ba	; 0x65ba <CAN_RXMOb_Init>
    6668:	60 e0       	ldi	r22, 0x00	; 0
    666a:	82 e0       	ldi	r24, 0x02	; 2
    666c:	90 e0       	ldi	r25, 0x00	; 0
    666e:	0c 94 b6 32 	jmp	0x656c	; 0x656c <CAN_USSREG>

00006672 <CAN_TXOK>:
    6672:	80 e1       	ldi	r24, 0x10	; 16
    6674:	80 93 ed 00 	sts	0x00ED, r24
    6678:	90 91 ee 00 	lds	r25, 0x00EE
    667c:	89 2f       	mov	r24, r25
    667e:	80 74       	andi	r24, 0x40	; 64
    6680:	96 ff       	sbrs	r25, 6
    6682:	06 c0       	rjmp	.+12     	; 0x6690 <CAN_TXOK+0x1e>
    6684:	80 91 ee 00 	lds	r24, 0x00EE
    6688:	8f 7b       	andi	r24, 0xBF	; 191
    668a:	80 93 ee 00 	sts	0x00EE, r24
    668e:	81 e0       	ldi	r24, 0x01	; 1
    6690:	08 95       	ret

00006692 <CAN_RXOK>:
    6692:	80 91 ef 00 	lds	r24, 0x00EF
    6696:	80 68       	ori	r24, 0x80	; 128
    6698:	80 93 ef 00 	sts	0x00EF, r24
    669c:	90 91 ee 00 	lds	r25, 0x00EE
    66a0:	89 2f       	mov	r24, r25
    66a2:	80 72       	andi	r24, 0x20	; 32
    66a4:	95 ff       	sbrs	r25, 5
    66a6:	06 c0       	rjmp	.+12     	; 0x66b4 <CAN_RXOK+0x22>
    66a8:	80 91 ee 00 	lds	r24, 0x00EE
    66ac:	8f 7d       	andi	r24, 0xDF	; 223
    66ae:	80 93 ee 00 	sts	0x00EE, r24
    66b2:	81 e0       	ldi	r24, 0x01	; 1
    66b4:	08 95       	ret

000066b6 <CAN_TXMOB>:
    66b6:	20 e1       	ldi	r18, 0x10	; 16
    66b8:	20 93 ed 00 	sts	0x00ED, r18
    66bc:	10 92 ef 00 	sts	0x00EF, r1
    66c0:	fc 01       	movw	r30, r24
    66c2:	20 81       	ld	r18, Z
    66c4:	31 81       	ldd	r19, Z+1	; 0x01
    66c6:	32 96       	adiw	r30, 0x02	; 2
    66c8:	90 91 ef 00 	lds	r25, 0x00EF
    66cc:	82 2f       	mov	r24, r18
    66ce:	8f 70       	andi	r24, 0x0F	; 15
    66d0:	89 2b       	or	r24, r25
    66d2:	80 93 ef 00 	sts	0x00EF, r24
    66d6:	10 92 f0 00 	sts	0x00F0, r1
    66da:	10 92 f1 00 	sts	0x00F1, r1
    66de:	10 92 f2 00 	sts	0x00F2, r1
    66e2:	30 93 f3 00 	sts	0x00F3, r19
    66e6:	22 23       	and	r18, r18
    66e8:	29 f0       	breq	.+10     	; 0x66f4 <CAN_TXMOB+0x3e>
    66ea:	81 91       	ld	r24, Z+
    66ec:	80 93 fa 00 	sts	0x00FA, r24
    66f0:	21 50       	subi	r18, 0x01	; 1
    66f2:	f9 cf       	rjmp	.-14     	; 0x66e6 <CAN_TXMOB+0x30>
    66f4:	80 91 ef 00 	lds	r24, 0x00EF
    66f8:	80 64       	ori	r24, 0x40	; 64
    66fa:	80 93 ef 00 	sts	0x00EF, r24
    66fe:	08 95       	ret

00006700 <CAN_RXMOB>:
    6700:	80 e2       	ldi	r24, 0x20	; 32
    6702:	80 93 ed 00 	sts	0x00ED, r24
    6706:	0e 94 49 33 	call	0x6692	; 0x6692 <CAN_RXOK>
    670a:	88 23       	and	r24, r24
    670c:	b9 f0       	breq	.+46     	; 0x673c <CAN_RXMOB+0x3c>
    670e:	80 91 ef 00 	lds	r24, 0x00EF
    6712:	8f 70       	andi	r24, 0x0F	; 15
    6714:	80 93 11 01 	sts	0x0111, r24
    6718:	90 91 f3 00 	lds	r25, 0x00F3
    671c:	90 93 12 01 	sts	0x0112, r25
    6720:	92 e0       	ldi	r25, 0x02	; 2
    6722:	98 0f       	add	r25, r24
    6724:	82 e0       	ldi	r24, 0x02	; 2
    6726:	89 17       	cp	r24, r25
    6728:	59 f0       	breq	.+22     	; 0x6740 <CAN_RXMOB+0x40>
    672a:	20 91 fa 00 	lds	r18, 0x00FA
    672e:	e8 2f       	mov	r30, r24
    6730:	f0 e0       	ldi	r31, 0x00	; 0
    6732:	ef 5e       	subi	r30, 0xEF	; 239
    6734:	fe 4f       	sbci	r31, 0xFE	; 254
    6736:	20 83       	st	Z, r18
    6738:	8f 5f       	subi	r24, 0xFF	; 255
    673a:	f5 cf       	rjmp	.-22     	; 0x6726 <CAN_RXMOB+0x26>
    673c:	10 92 11 01 	sts	0x0111, r1
    6740:	81 e1       	ldi	r24, 0x11	; 17
    6742:	91 e0       	ldi	r25, 0x01	; 1
    6744:	08 95       	ret

00006746 <CAN_RXMOb_SetAddr>:
    6746:	90 e2       	ldi	r25, 0x20	; 32
    6748:	90 93 ed 00 	sts	0x00ED, r25
    674c:	10 92 f0 00 	sts	0x00F0, r1
    6750:	10 92 f1 00 	sts	0x00F1, r1
    6754:	10 92 f2 00 	sts	0x00F2, r1
    6758:	80 93 f3 00 	sts	0x00F3, r24
    675c:	10 92 f4 00 	sts	0x00F4, r1
    6760:	10 92 f5 00 	sts	0x00F5, r1
    6764:	10 92 f6 00 	sts	0x00F6, r1
    6768:	8f ef       	ldi	r24, 0xFF	; 255
    676a:	80 93 f7 00 	sts	0x00F7, r24
    676e:	ef ee       	ldi	r30, 0xEF	; 239
    6770:	f0 e0       	ldi	r31, 0x00	; 0
    6772:	80 81       	ld	r24, Z
    6774:	80 68       	ori	r24, 0x80	; 128
    6776:	80 83       	st	Z, r24
    6778:	08 95       	ret

0000677a <TC_Wait_1clk>:
    677a:	00 00       	nop
    677c:	08 95       	ret

0000677e <TC0_Wait_1ms_Init>:
    677e:	16 bc       	out	0x26, r1	; 38
    6780:	83 e0       	ldi	r24, 0x03	; 3
    6782:	84 bd       	out	0x24, r24	; 36
    6784:	08 95       	ret

00006786 <TC0_Wait_1ms_Query>:
    6786:	95 b3       	in	r25, 0x15	; 21
    6788:	89 2f       	mov	r24, r25
    678a:	81 70       	andi	r24, 0x01	; 1
    678c:	90 ff       	sbrs	r25, 0
    678e:	02 c0       	rjmp	.+4      	; 0x6794 <TC0_Wait_1ms_Query+0xe>
    6790:	a8 9a       	sbi	0x15, 0	; 21
    6792:	81 e0       	ldi	r24, 0x01	; 1
    6794:	08 95       	ret

00006796 <TC0_Stop>:
    6796:	84 b5       	in	r24, 0x24	; 36
    6798:	8c 7f       	andi	r24, 0xFC	; 252
    679a:	84 bd       	out	0x24, r24	; 36
    679c:	08 95       	ret

0000679e <TC0_Wait_msWhile>:
    679e:	0f 93       	push	r16
    67a0:	1f 93       	push	r17
    67a2:	cf 93       	push	r28
    67a4:	df 93       	push	r29
    67a6:	8c 01       	movw	r16, r24
    67a8:	0e 94 bf 33 	call	0x677e	; 0x677e <TC0_Wait_1ms_Init>
    67ac:	c0 e0       	ldi	r28, 0x00	; 0
    67ae:	d0 e0       	ldi	r29, 0x00	; 0
    67b0:	c0 17       	cp	r28, r16
    67b2:	d1 07       	cpc	r29, r17
    67b4:	34 f4       	brge	.+12     	; 0x67c2 <TC0_Wait_msWhile+0x24>
    67b6:	0e 94 c3 33 	call	0x6786	; 0x6786 <TC0_Wait_1ms_Query>
    67ba:	88 23       	and	r24, r24
    67bc:	e1 f3       	breq	.-8      	; 0x67b6 <TC0_Wait_msWhile+0x18>
    67be:	21 96       	adiw	r28, 0x01	; 1
    67c0:	f7 cf       	rjmp	.-18     	; 0x67b0 <TC0_Wait_msWhile+0x12>
    67c2:	df 91       	pop	r29
    67c4:	cf 91       	pop	r28
    67c6:	1f 91       	pop	r17
    67c8:	0f 91       	pop	r16
    67ca:	08 95       	ret

000067cc <TC0_Wait_msQuery>:
    67cc:	82 30       	cpi	r24, 0x02	; 2
    67ce:	91 05       	cpc	r25, r1
    67d0:	59 f4       	brne	.+22     	; 0x67e8 <TC0_Wait_msQuery+0x1c>
    67d2:	10 92 1f 01 	sts	0x011F, r1
    67d6:	10 92 1e 01 	sts	0x011E, r1
    67da:	70 93 1d 01 	sts	0x011D, r23
    67de:	60 93 1c 01 	sts	0x011C, r22
    67e2:	0e 94 bf 33 	call	0x677e	; 0x677e <TC0_Wait_1ms_Init>
    67e6:	02 c0       	rjmp	.+4      	; 0x67ec <TC0_Wait_msQuery+0x20>
    67e8:	01 97       	sbiw	r24, 0x01	; 1
    67ea:	11 f0       	breq	.+4      	; 0x67f0 <TC0_Wait_msQuery+0x24>
    67ec:	80 e0       	ldi	r24, 0x00	; 0
    67ee:	08 95       	ret
    67f0:	0e 94 c3 33 	call	0x6786	; 0x6786 <TC0_Wait_1ms_Query>
    67f4:	88 23       	and	r24, r24
    67f6:	d1 f3       	breq	.-12     	; 0x67ec <TC0_Wait_msQuery+0x20>
    67f8:	80 91 1e 01 	lds	r24, 0x011E
    67fc:	90 91 1f 01 	lds	r25, 0x011F
    6800:	01 96       	adiw	r24, 0x01	; 1
    6802:	90 93 1f 01 	sts	0x011F, r25
    6806:	80 93 1e 01 	sts	0x011E, r24
    680a:	20 91 1c 01 	lds	r18, 0x011C
    680e:	30 91 1d 01 	lds	r19, 0x011D
    6812:	28 17       	cp	r18, r24
    6814:	39 07       	cpc	r19, r25
    6816:	54 f7       	brge	.-44     	; 0x67ec <TC0_Wait_msQuery+0x20>
    6818:	10 92 1f 01 	sts	0x011F, r1
    681c:	10 92 1e 01 	sts	0x011E, r1
    6820:	81 e0       	ldi	r24, 0x01	; 1
    6822:	08 95       	ret

00006824 <main>:
    6824:	0e 94 80 30 	call	0x6100	; 0x6100 <Basic_Init>
    6828:	8f e0       	ldi	r24, 0x0F	; 15
    682a:	90 e0       	ldi	r25, 0x00	; 0
    682c:	a8 95       	wdr
    682e:	0e 94 80 32 	call	0x6500	; 0x6500 <CAN_RxParser>
    6832:	82 31       	cpi	r24, 0x12	; 18
    6834:	91 05       	cpc	r25, r1
    6836:	31 f0       	breq	.+12     	; 0x6844 <main+0x20>
    6838:	83 31       	cpi	r24, 0x13	; 19
    683a:	91 05       	cpc	r25, r1
    683c:	b9 f7       	brne	.-18     	; 0x682c <main+0x8>
    683e:	0e 94 37 31 	call	0x626e	; 0x626e <Boot_Read_App>
    6842:	f4 cf       	rjmp	.-24     	; 0x682c <main+0x8>
    6844:	0e 94 95 30 	call	0x612a	; 0x612a <Boot_Program_App>
    6848:	f1 cf       	rjmp	.-30     	; 0x682c <main+0x8>

0000684a <_exit>:
    684a:	f8 94       	cli

0000684c <__stop_program>:
    684c:	ff cf       	rjmp	.-2      	; 0x684c <__stop_program>
